Certificate Request:
    Data:
        Version: 1 (0x0)
        Subject: C = NO, ST = Oslo, L = Oslo, O = TLS Experts, CN = OCSP Responder
        Subject Public Key Info:
            Public Key Algorithm: rsaEncryption
                Public-Key: (2048 bit)
                Modulus:
                    00:c8:ab:d1:f3:b6:24:e2:89:ae:31:77:9a:d7:6e:
                    f9:65:e1:28:3e:c1:7d:0a:6b:eb:f5:6b:d9:a1:e2:
                    5f:d0:60:2a:d0:4e:62:0f:2d:77:7e:03:ba:db:f8:
                    f4:01:7b:77:5a:83:1d:39:6b:f5:ee:53:08:13:0a:
                    ac:dc:48:dd:3e:66:19:c1:91:78:c6:e4:17:04:0f:
                    de:5f:8c:ee:b5:21:88:7d:c8:7d:1f:57:88:6f:0f:
                    a6:b0:23:ba:4a:57:b0:8d:4d:df:de:39:7a:34:56:
                    bc:48:26:35:2c:26:49:09:65:c3:7f:04:dd:a0:bd:
                    bd:99:66:74:69:ae:db:e0:93:80:e9:fc:7b:99:84:
                    2b:f2:e5:73:e6:7f:df:5b:ea:53:78:1d:ab:0b:e5:
                    72:d9:5e:2f:56:8b:9d:53:71:3c:51:24:3d:dc:60:
                    7e:67:98:6d:20:44:3b:89:66:81:2d:2d:46:d3:a4:
                    a1:92:6a:02:3f:37:c0:12:99:ee:ed:0d:b8:24:e2:
                    a6:b5:c4:b7:3b:d8:24:a9:f4:b1:be:8f:81:a4:8d:
                    bf:52:07:07:c0:78:80:42:55:52:e9:32:66:13:43:
                    a6:34:50:66:b1:93:fb:f4:ac:0f:40:fe:29:08:3e:
                    a9:e2:cc:14:40:e0:c1:96:e0:3b:ac:4a:ee:64:74:
                    a5:5f
                Exponent: 65537 (0x10001)
        Attributes:
            (none)
            Requested Extensions:
    Signature Algorithm: sha256WithRSAEncryption
    Signature Value:
        b4:6f:d7:22:77:fa:7d:56:af:7f:b3:ec:68:77:64:be:2e:62:
        53:5d:0b:c8:d6:32:d8:12:e1:9d:b7:3a:b6:03:24:44:31:85:
        ef:12:71:d1:85:13:7c:41:d3:f0:29:21:0c:3a:31:61:b8:b0:
        e0:3a:57:7b:3a:90:d8:48:3e:92:30:2f:cb:d4:ab:8e:60:01:
        28:ff:65:66:81:93:84:b9:1c:16:ab:ed:6d:d4:64:f6:65:d2:
        46:34:b3:e9:11:5b:c4:60:e5:d3:8f:7f:e7:7d:d5:75:49:39:
        26:74:59:43:fa:a6:cd:88:af:97:57:2f:35:4c:d4:ed:84:47:
        65:8e:ca:a7:b6:a8:a3:13:cb:47:d8:78:b3:74:33:85:69:38:
        a1:0c:5b:cd:6d:b5:e4:d4:33:05:88:d8:dd:40:27:7a:a2:09:
        36:2c:30:5d:3e:d5:80:da:c5:1f:4e:94:d2:91:87:1f:8e:d2:
        d8:cd:02:a5:ab:c1:63:39:96:76:69:5f:d9:ab:dd:6d:60:0d:
        22:ce:95:1e:7c:4e:98:3e:6f:ed:6c:cc:b6:35:be:d9:72:99:
        d9:d2:75:54:33:ba:76:e3:65:dd:77:3d:13:08:4e:80:f3:a4:
        df:88:8f:a5:fb:c9:87:92:76:38:3a:cd:45:bd:51:fa:06:11:
        bd:3e:a5:41
-----BEGIN CERTIFICATE REQUEST-----
MIICnzCCAYcCAQAwWjELMAkGA1UEBhMCTk8xDTALBgNVBAgMBE9zbG8xDTALBgNV
BAcMBE9zbG8xFDASBgNVBAoMC1RMUyBFeHBlcnRzMRcwFQYDVQQDDA5PQ1NQIFJl
c3BvbmRlcjCCASIwDQYJKoZIhvcNAQEBBQADggEPADCCAQoCggEBAMir0fO2JOKJ
rjF3mtdu+WXhKD7BfQpr6/Vr2aHiX9BgKtBOYg8td34Dutv49AF7d1qDHTlr9e5T
CBMKrNxI3T5mGcGReMbkFwQP3l+M7rUhiH3IfR9XiG8PprAjukpXsI1N3945ejRW
vEgmNSwmSQllw38E3aC9vZlmdGmu2+CTgOn8e5mEK/Llc+Z/31vqU3gdqwvlctle
L1aLnVNxPFEkPdxgfmeYbSBEO4lmgS0tRtOkoZJqAj83wBKZ7u0NuCTiprXEtzvY
JKn0sb6PgaSNv1IHB8B4gEJVUukyZhNDpjRQZrGT+/SsD0D+KQg+qeLMFEDgwZbg
O6xK7mR0pV8CAwEAAaAAMA0GCSqGSIb3DQEBCwUAA4IBAQC0b9cid/p9Vq9/s+xo
d2S+LmJTXQvI1jLYEuGdtzq2AyREMYXvEnHRhRN8QdPwKSEMOjFhuLDgOld7OpDY
SD6SMC/L1KuOYAEo/2VmgZOEuRwWq+1t1GT2ZdJGNLPpEVvEYOXTj3/nfdV1STkm
dFlD+qbNiK+XVy81TNTthEdljsqntqijE8tH2HizdDOFaTihDFvNbbXk1DMFiNjd
QCd6ogk2LDBdPtWA2sUfTpTSkYcfjtLYzQKlq8FjOZZ2aV/Zq91tYA0izpUefE6Y
Pm/tbMy2Nb7ZcpnZ0nVUM7p242Xddz0TCE6A86TfiI+l+8mHknY4Os1FvVH6BhG9
PqVB
-----END CERTIFICATE REQUEST-----
