Certificate Request:
    Data:
        Version: 1 (0x0)
        Subject: C = NO, ST = Oslo, L = Oslo, O = TLS Experts, CN = Root CA
        Subject Public Key Info:
            Public Key Algorithm: rsaEncryption
                Public-Key: (2048 bit)
                Modulus:
                    00:fc:e4:03:eb:fe:24:b8:f2:89:3f:23:01:b6:c8:
                    34:1b:33:8a:58:89:51:f1:06:88:5f:3d:25:9f:ab:
                    32:26:96:27:45:5a:62:10:cb:9a:17:c1:be:e0:8a:
                    fa:fc:5b:f7:8c:5d:2a:02:ed:dd:75:f4:bd:88:65:
                    d0:e5:1f:61:92:51:e5:ba:cd:7b:4b:d1:e1:b6:b7:
                    ae:63:b7:5e:9e:a4:6d:57:79:de:ba:51:45:58:84:
                    75:fc:6c:c1:f5:d8:a6:7a:a4:48:82:6a:c1:4c:e0:
                    63:a7:20:9b:85:1f:33:71:6b:b2:62:dc:0d:63:70:
                    5d:fb:23:b1:24:f4:53:24:c1:15:08:25:9e:74:76:
                    4c:d4:b3:71:85:ee:bc:27:d8:5c:79:0e:d2:08:3e:
                    23:4a:30:fc:ea:8b:e3:2a:78:2a:78:9e:f2:cd:9c:
                    09:12:cb:03:c5:35:6b:9c:65:73:80:f0:74:fe:5d:
                    33:e2:14:72:53:30:f5:b9:80:ae:27:c0:8b:48:19:
                    c4:06:53:71:62:71:ab:e7:b7:6e:64:71:fb:f1:31:
                    9a:6e:51:3e:ce:ac:51:28:b7:96:20:ca:c8:6e:fa:
                    c0:fd:92:4d:fc:82:a7:73:09:af:b1:36:34:5c:10:
                    03:e4:5d:f9:f0:b8:20:e5:f1:e8:e7:d8:2a:46:f8:
                    9b:0f
                Exponent: 65537 (0x10001)
        Attributes:
            (none)
            Requested Extensions:
    Signature Algorithm: sha256WithRSAEncryption
    Signature Value:
        8f:fe:3d:d8:fe:d5:ca:63:8e:f0:23:49:b7:ba:d0:2c:c0:60:
        bb:bf:f5:ed:16:21:90:03:c3:d3:09:eb:63:eb:46:08:2f:c5:
        c7:3c:0e:09:4d:5d:c5:47:83:11:21:16:ae:73:31:ac:f2:7c:
        e3:89:47:c1:6f:e6:63:fa:3b:fa:54:4b:f3:41:98:80:be:31:
        7a:f0:9a:e6:db:40:65:72:a1:87:57:0d:49:79:e1:08:d6:19:
        06:05:aa:2a:11:f3:62:06:63:0e:9a:2d:ee:4c:b1:5e:a3:01:
        c4:6a:34:1e:24:61:12:d0:24:52:79:38:38:16:13:14:94:b2:
        df:8d:94:e2:90:3f:84:b8:17:bd:31:14:ac:96:d0:43:91:64:
        b2:76:96:2b:e1:ab:dd:dd:d3:bc:19:70:4c:7e:f4:22:38:28:
        82:70:a6:8c:63:bf:2f:7b:00:9a:d5:89:31:f6:1c:01:6e:80:
        03:95:d9:f7:42:54:73:4b:d3:bb:f4:98:1f:a3:5e:42:f0:91:
        55:96:fe:03:96:a7:12:c8:6d:7f:cd:c3:7f:9d:9d:2d:97:fe:
        58:e8:8c:b9:8f:00:3f:b3:e1:d7:ef:80:92:29:8b:1b:b9:f3:
        8d:03:33:d2:6f:59:69:9a:c1:71:70:27:b4:79:42:2a:fb:bd:
        4d:03:fe:5e
-----BEGIN CERTIFICATE REQUEST-----
MIICmDCCAYACAQAwUzELMAkGA1UEBhMCTk8xDTALBgNVBAgMBE9zbG8xDTALBgNV
BAcMBE9zbG8xFDASBgNVBAoMC1RMUyBFeHBlcnRzMRAwDgYDVQQDDAdSb290IENB
MIIBIjANBgkqhkiG9w0BAQEFAAOCAQ8AMIIBCgKCAQEA/OQD6/4kuPKJPyMBtsg0
GzOKWIlR8QaIXz0ln6syJpYnRVpiEMuaF8G+4Ir6/Fv3jF0qAu3ddfS9iGXQ5R9h
klHlus17S9HhtreuY7denqRtV3neulFFWIR1/GzB9dimeqRIgmrBTOBjpyCbhR8z
cWuyYtwNY3Bd+yOxJPRTJMEVCCWedHZM1LNxhe68J9hceQ7SCD4jSjD86ovjKngq
eJ7yzZwJEssDxTVrnGVzgPB0/l0z4hRyUzD1uYCuJ8CLSBnEBlNxYnGr57duZHH7
8TGablE+zqxRKLeWIMrIbvrA/ZJN/IKncwmvsTY0XBAD5F358Lgg5fHo59gqRvib
DwIDAQABoAAwDQYJKoZIhvcNAQELBQADggEBAI/+Pdj+1cpjjvAjSbe60CzAYLu/
9e0WIZADw9MJ62PrRggvxcc8DglNXcVHgxEhFq5zMazyfOOJR8Fv5mP6O/pUS/NB
mIC+MXrwmubbQGVyoYdXDUl54QjWGQYFqioR82IGYw6aLe5MsV6jAcRqNB4kYRLQ
JFJ5ODgWExSUst+NlOKQP4S4F70xFKyW0EORZLJ2livhq93d07wZcEx+9CI4KIJw
poxjvy97AJrViTH2HAFugAOV2fdCVHNL07v0mB+jXkLwkVWW/gOWpxLIbX/Nw3+d
nS2X/ljojLmPAD+z4dfvgJIpixu5840DM9JvWWmawXFwJ7R5Qir7vU0D/l4=
-----END CERTIFICATE REQUEST-----
