Certificate:
    Data:
        Version: 3 (0x2)
        Serial Number:
            15:f9:12:d2:55:93:37:c1:13:c7:f5:0b:5d:16:77:09:6e:08:07:a9
        Signature Algorithm: sha256WithRSAEncryption
        Issuer: C=NO, ST=Oslo, L=Oslo, O=TLS Experts, CN=Intermediate CA
        Validity
            Not Before: Oct 11 16:08:42 2023 GMT
            Not After : Oct 10 16:08:42 2024 GMT
        Subject: C=NO, ST=Oslo, L=Oslo, O=TLS Experts, CN=server2.tls-experts.no
        Subject Public Key Info:
            Public Key Algorithm: rsaEncryption
                Public-Key: (2048 bit)
                Modulus:
                    00:c0:5a:4d:31:de:53:03:cb:01:63:36:4e:6c:e0:
                    41:75:ea:42:76:2c:c5:83:f6:b4:d7:d0:ea:4e:ec:
                    eb:94:c3:4b:2e:24:b6:3b:4b:b3:f0:19:fe:41:17:
                    9b:79:17:3f:fe:09:dd:ce:ae:f2:c9:91:a2:01:e0:
                    f8:54:12:b9:03:b5:2d:d5:bd:76:c1:f3:46:71:f7:
                    8a:ea:af:d5:40:48:12:51:8f:7d:93:d8:a8:27:1d:
                    09:ec:f0:52:3b:94:95:cf:f5:47:54:ba:16:3b:d1:
                    a9:6c:1f:b4:27:22:27:80:b7:48:5c:23:a8:cc:b3:
                    84:45:f6:52:b8:81:36:c6:2e:98:3e:8f:f3:a0:6c:
                    3e:eb:b4:6e:1a:bc:62:ba:fd:66:b4:81:9e:93:3e:
                    47:fd:73:0f:ae:54:39:b8:9c:aa:76:44:1f:df:9a:
                    62:b3:cd:6f:7d:7d:b0:ec:75:b0:de:16:84:0e:da:
                    88:b2:23:a0:ba:5c:ac:ea:a0:75:90:a6:2b:9d:05:
                    e7:20:49:3c:eb:fe:27:13:30:4c:f1:c2:5f:ce:96:
                    f1:fd:77:2c:a5:38:8e:52:2f:4b:50:bb:32:73:ea:
                    4d:97:5d:8f:7b:24:d9:18:13:72:b1:0e:bf:b9:c0:
                    7f:3d:17:fe:54:66:66:64:13:f0:4d:3b:5e:16:b1:
                    6e:8d
                Exponent: 65537 (0x10001)
        X509v3 extensions:
            X509v3 Subject Key Identifier: 
                C1:66:05:FE:18:B6:A8:5F:CC:77:A8:37:45:9C:90:51:E0:E8:FF:46
            X509v3 Authority Key Identifier: 
                0B:BC:69:DE:76:57:96:14:DF:60:A8:D9:D7:92:74:39:2D:B6:EE:A9
            X509v3 Basic Constraints: critical
                CA:FALSE
            Netscape Cert Type: 
                SSL Server
            X509v3 Key Usage: critical
                Digital Signature, Key Encipherment
            X509v3 Extended Key Usage: 
                TLS Web Server Authentication
            X509v3 CRL Distribution Points: 
                Full Name:
                  URI:http://crl.tls-experts.no/intermediate_crl.der
            Authority Information Access: 
                OCSP - URI:http://ocsp.tls-experts.no/
    Signature Algorithm: sha256WithRSAEncryption
    Signature Value:
        30:71:1e:cd:70:57:81:58:46:e4:21:b0:1d:1e:fa:d0:8e:f0:
        35:e3:23:1a:5a:73:a7:ff:33:13:b6:6d:bc:90:1c:fa:b9:0e:
        79:24:4e:5e:3c:72:97:75:5e:8e:6a:5c:dc:40:9a:e0:45:4a:
        e5:df:91:6e:c7:c5:be:db:22:33:e2:a9:6a:ea:8c:92:f6:c4:
        d2:39:c9:8f:cb:2b:16:c2:93:84:2e:c7:af:2e:19:8d:ea:df:
        9a:30:c8:72:4f:a0:2d:57:63:d2:44:ce:18:f4:27:ad:07:25:
        e6:23:ca:89:6f:f5:de:aa:99:6d:26:72:6b:55:4e:00:da:7f:
        5b:06:19:f1:1c:97:d2:e3:cf:2f:c6:7d:22:b7:0e:6e:ea:8d:
        61:c6:ea:08:3c:23:47:d5:e6:12:23:76:4c:b1:e8:6b:ec:98:
        a5:89:41:4d:ac:74:6d:24:0e:79:54:a2:d6:31:94:84:3e:ec:
        0c:d8:d8:0d:ab:1d:f3:d6:ad:3c:e7:f0:a7:7b:98:fc:84:a9:
        4a:a5:4c:f1:d1:a7:65:b1:77:df:1e:26:e5:d0:44:69:e9:ac:
        1f:78:a7:d3:1f:00:9a:5b:7e:8c:b1:64:57:b1:4c:52:8e:fa:
        7f:74:6d:3e:59:01:0d:79:c3:7e:e0:57:d6:db:f9:7f:25:48:
        b7:46:d1:4d
-----BEGIN CERTIFICATE-----
MIIEUTCCAzmgAwIBAgIUFfkS0lWTN8ETx/ULXRZ3CW4IB6kwDQYJKoZIhvcNAQEL
BQAwWzELMAkGA1UEBhMCTk8xDTALBgNVBAgMBE9zbG8xDTALBgNVBAcMBE9zbG8x
FDASBgNVBAoMC1RMUyBFeHBlcnRzMRgwFgYDVQQDDA9JbnRlcm1lZGlhdGUgQ0Ew
HhcNMjMxMDExMTYwODQyWhcNMjQxMDEwMTYwODQyWjBiMQswCQYDVQQGEwJOTzEN
MAsGA1UECAwET3NsbzENMAsGA1UEBwwET3NsbzEUMBIGA1UECgwLVExTIEV4cGVy
dHMxHzAdBgNVBAMMFnNlcnZlcjIudGxzLWV4cGVydHMubm8wggEiMA0GCSqGSIb3
DQEBAQUAA4IBDwAwggEKAoIBAQDAWk0x3lMDywFjNk5s4EF16kJ2LMWD9rTX0OpO
7OuUw0suJLY7S7PwGf5BF5t5Fz/+Cd3OrvLJkaIB4PhUErkDtS3VvXbB80Zx94rq
r9VASBJRj32T2KgnHQns8FI7lJXP9UdUuhY70alsH7QnIieAt0hcI6jMs4RF9lK4
gTbGLpg+j/OgbD7rtG4avGK6/Wa0gZ6TPkf9cw+uVDm4nKp2RB/fmmKzzW99fbDs
dbDeFoQO2oiyI6C6XKzqoHWQpiudBecgSTzr/icTMEzxwl/OlvH9dyylOI5SL0tQ
uzJz6k2XXY97JNkYE3KxDr+5wH89F/5UZmZkE/BNO14WsW6NAgMBAAGjggEEMIIB
ADAdBgNVHQ4EFgQUwWYF/hi2qF/Md6g3RZyQUeDo/0YwHwYDVR0jBBgwFoAUC7xp
3nZXlhTfYKjZ15J0OS227qkwDAYDVR0TAQH/BAIwADARBglghkgBhvhCAQEEBAMC
BkAwDgYDVR0PAQH/BAQDAgWgMBMGA1UdJQQMMAoGCCsGAQUFBwMBMD8GA1UdHwQ4
MDYwNKAyoDCGLmh0dHA6Ly9jcmwudGxzLWV4cGVydHMubm8vaW50ZXJtZWRpYXRl
X2NybC5kZXIwNwYIKwYBBQUHAQEEKzApMCcGCCsGAQUFBzABhhtodHRwOi8vb2Nz
cC50bHMtZXhwZXJ0cy5uby8wDQYJKoZIhvcNAQELBQADggEBADBxHs1wV4FYRuQh
sB0e+tCO8DXjIxpac6f/MxO2bbyQHPq5DnkkTl48cpd1Xo5qXNxAmuBFSuXfkW7H
xb7bIjPiqWrqjJL2xNI5yY/LKxbCk4Qux68uGY3q35owyHJPoC1XY9JEzhj0J60H
JeYjyolv9d6qmW0mcmtVTgDaf1sGGfEcl9Ljzy/GfSK3Dm7qjWHG6gg8I0fV5hIj
dkyx6GvsmKWJQU2sdG0kDnlUotYxlIQ+7AzY2A2rHfPWrTzn8Kd7mPyEqUqlTPHR
p2Wxd98eJuXQRGnprB94p9MfAJpbfoyxZFexTFKO+n90bT5ZAQ15w37gV9bb+X8l
SLdG0U0=
-----END CERTIFICATE-----
