Certificate:
    Data:
        Version: 3 (0x2)
        Serial Number:
            28:63:0f:0e:ad:5f:8f:5e:3d:ce:cb:33:e4:d3:c6:35:a9:4e:ed:9d
        Signature Algorithm: sha256WithRSAEncryption
        Issuer: C=NO, ST=Oslo, L=Oslo, O=TLS Experts, CN=Intermediate CA
        Validity
            Not Before: Oct 11 15:41:41 2023 GMT
            Not After : Oct 10 15:41:41 2024 GMT
        Subject: C=NO, ST=Oslo, L=Oslo, O=TLS Experts, CN=internal.tls-experts.no
        Subject Public Key Info:
            Public Key Algorithm: rsaEncryption
                Public-Key: (2048 bit)
                Modulus:
                    00:9f:a7:41:d6:45:74:d0:c0:01:e7:6b:0f:c6:a8:
                    8d:dc:81:3c:41:b6:c5:1b:88:d1:5c:01:fc:7e:f9:
                    0c:85:e3:97:5b:0f:1e:4f:d0:1c:07:93:19:4b:18:
                    4b:71:5d:d4:7d:fd:9d:2e:89:88:0f:00:f1:42:78:
                    c3:db:9d:89:ed:c7:eb:6f:00:08:7f:c4:67:f8:15:
                    61:5a:e3:f5:09:b5:d9:2f:ba:30:c5:ed:32:dc:6f:
                    39:8f:7f:80:22:a6:cb:ef:5d:df:04:cd:14:d7:22:
                    90:71:cb:a9:cf:7e:86:28:75:d3:33:1a:87:3d:a5:
                    91:49:0d:4e:9d:6a:6d:cd:25:26:0c:94:16:eb:f6:
                    10:43:c2:3f:e3:2e:cb:21:bb:62:c7:c0:29:05:60:
                    86:3e:ee:54:c4:77:fa:9c:fc:1d:a6:de:9b:62:d7:
                    8a:6c:01:85:e0:36:c5:9f:66:de:ec:1c:d7:91:cf:
                    cb:ac:05:ec:cd:ee:c0:89:f3:b3:2e:48:ce:a1:66:
                    52:74:00:c9:9b:ef:d2:8c:86:d2:f7:d6:cb:69:0b:
                    70:9d:a7:0b:28:d3:23:69:c2:48:7f:ad:34:74:6b:
                    34:f3:7c:ca:2a:e0:c2:49:97:90:6f:4e:8e:0c:0f:
                    7e:61:66:2f:c6:4a:7a:10:88:30:ef:ce:e9:52:74:
                    47:e3
                Exponent: 65537 (0x10001)
        X509v3 extensions:
            X509v3 Subject Key Identifier: 
                29:EA:70:43:86:D7:1A:04:BD:4E:00:9F:5C:FB:A4:3C:76:C1:44:D4
            X509v3 Authority Key Identifier: 
                0B:BC:69:DE:76:57:96:14:DF:60:A8:D9:D7:92:74:39:2D:B6:EE:A9
            X509v3 Basic Constraints: critical
                CA:FALSE
            Netscape Cert Type: 
                SSL Server
            X509v3 Key Usage: critical
                Digital Signature, Key Encipherment
            X509v3 Extended Key Usage: 
                TLS Web Server Authentication
            X509v3 CRL Distribution Points: 
                Full Name:
                  URI:http://crl.tls-experts.no/intermediate_crl.der
            Authority Information Access: 
                OCSP - URI:http://ocsp.tls-experts.no/
            X509v3 Subject Alternative Name: 
                DNS:mirror1.tls-experts.no, DNS:mirror2.tls-experts.no
    Signature Algorithm: sha256WithRSAEncryption
    Signature Value:
        46:c3:4a:e6:32:a8:de:44:92:2a:69:6c:4b:37:e8:24:4c:c2:
        b7:cb:c9:cc:83:54:4a:1d:ec:f3:fd:90:36:6f:82:84:d3:47:
        58:fb:1e:0f:85:5b:fd:33:e3:a7:01:39:8a:15:ac:14:19:b6:
        5a:64:5a:0f:b2:56:47:e5:0a:63:2e:31:63:eb:9c:45:75:f0:
        0d:0e:cf:f2:94:fe:db:eb:99:92:eb:13:41:0a:a4:58:a9:61:
        c0:c9:56:cf:ab:98:64:f7:a2:91:e3:bb:56:24:df:f3:ff:92:
        34:8a:85:8b:21:46:3c:39:06:d4:aa:25:25:53:0c:cb:11:5f:
        84:c1:d3:b5:46:0f:97:85:05:8d:08:08:6d:a7:ca:65:c7:2c:
        8b:d3:cf:87:67:03:19:7a:e8:b1:2c:b4:d9:93:59:a2:a2:09:
        52:fd:ec:b0:ac:15:7e:2e:e7:e1:c7:29:6e:ae:36:ef:8f:e5:
        a2:74:c5:2a:e6:e6:7f:02:15:9a:6b:07:7b:8d:13:0f:82:e8:
        c5:c6:fd:d2:94:6a:75:58:4d:f8:75:72:44:50:b1:b2:33:b6:
        04:7f:ff:d9:c6:d6:1c:7e:a2:f4:0f:a0:18:43:de:41:0e:d5:
        18:b9:f1:2c:1a:f1:a6:d9:94:12:a5:25:f7:6d:1a:3d:3c:b2:
        0b:42:54:ed
-----BEGIN CERTIFICATE-----
MIIEjTCCA3WgAwIBAgIUKGMPDq1fj149zssz5NPGNalO7Z0wDQYJKoZIhvcNAQEL
BQAwWzELMAkGA1UEBhMCTk8xDTALBgNVBAgMBE9zbG8xDTALBgNVBAcMBE9zbG8x
FDASBgNVBAoMC1RMUyBFeHBlcnRzMRgwFgYDVQQDDA9JbnRlcm1lZGlhdGUgQ0Ew
HhcNMjMxMDExMTU0MTQxWhcNMjQxMDEwMTU0MTQxWjBjMQswCQYDVQQGEwJOTzEN
MAsGA1UECAwET3NsbzENMAsGA1UEBwwET3NsbzEUMBIGA1UECgwLVExTIEV4cGVy
dHMxIDAeBgNVBAMMF2ludGVybmFsLnRscy1leHBlcnRzLm5vMIIBIjANBgkqhkiG
9w0BAQEFAAOCAQ8AMIIBCgKCAQEAn6dB1kV00MAB52sPxqiN3IE8QbbFG4jRXAH8
fvkMheOXWw8eT9AcB5MZSxhLcV3Uff2dLomIDwDxQnjD252J7cfrbwAIf8Rn+BVh
WuP1CbXZL7owxe0y3G85j3+AIqbL713fBM0U1yKQccupz36GKHXTMxqHPaWRSQ1O
nWptzSUmDJQW6/YQQ8I/4y7LIbtix8ApBWCGPu5UxHf6nPwdpt6bYteKbAGF4DbF
n2be7BzXkc/LrAXsze7AifOzLkjOoWZSdADJm+/SjIbS99bLaQtwnacLKNMjacJI
f600dGs083zKKuDCSZeQb06ODA9+YWYvxkp6EIgw787pUnRH4wIDAQABo4IBPzCC
ATswHQYDVR0OBBYEFCnqcEOG1xoEvU4An1z7pDx2wUTUMB8GA1UdIwQYMBaAFAu8
ad52V5YU32Co2deSdDkttu6pMAwGA1UdEwEB/wQCMAAwEQYJYIZIAYb4QgEBBAQD
AgZAMA4GA1UdDwEB/wQEAwIFoDATBgNVHSUEDDAKBggrBgEFBQcDATA/BgNVHR8E
ODA2MDSgMqAwhi5odHRwOi8vY3JsLnRscy1leHBlcnRzLm5vL2ludGVybWVkaWF0
ZV9jcmwuZGVyMDcGCCsGAQUFBwEBBCswKTAnBggrBgEFBQcwAYYbaHR0cDovL29j
c3AudGxzLWV4cGVydHMubm8vMDkGA1UdEQQyMDCCFm1pcnJvcjEudGxzLWV4cGVy
dHMubm+CFm1pcnJvcjIudGxzLWV4cGVydHMubm8wDQYJKoZIhvcNAQELBQADggEB
AEbDSuYyqN5EkippbEs36CRMwrfLycyDVEod7PP9kDZvgoTTR1j7Hg+FW/0z46cB
OYoVrBQZtlpkWg+yVkflCmMuMWPrnEV18A0Oz/KU/tvrmZLrE0EKpFipYcDJVs+r
mGT3opHju1Yk3/P/kjSKhYshRjw5BtSqJSVTDMsRX4TB07VGD5eFBY0ICG2nymXH
LIvTz4dnAxl66LEstNmTWaKiCVL97LCsFX4u5+HHKW6uNu+P5aJ0xSrm5n8CFZpr
B3uNEw+C6MXG/dKUanVYTfh1ckRQsbIztgR//9nG1hx+ovQPoBhD3kEO1Ri58Swa
8abZlBKlJfdtGj08sgtCVO0=
-----END CERTIFICATE-----
