Certificate:
    Data:
        Version: 3 (0x2)
        Serial Number:
            69:84:c2:cf:ac:dc:cc:5c:c6:75:8b:ad:a1:27:ac:98:5f:14:d9:bf
        Signature Algorithm: sha256WithRSAEncryption
        Issuer: C=NO, ST=Oslo, L=Oslo, O=TLS Experts, CN=Intermediate CA
        Validity
            Not Before: Oct 11 16:52:37 2023 GMT
            Not After : Oct 10 16:52:37 2024 GMT
        Subject: C=NO, ST=Oslo, L=Oslo, O=TLS Experts, CN=OCSP Responder
        Subject Public Key Info:
            Public Key Algorithm: rsaEncryption
                Public-Key: (2048 bit)
                Modulus:
                    00:c8:ab:d1:f3:b6:24:e2:89:ae:31:77:9a:d7:6e:
                    f9:65:e1:28:3e:c1:7d:0a:6b:eb:f5:6b:d9:a1:e2:
                    5f:d0:60:2a:d0:4e:62:0f:2d:77:7e:03:ba:db:f8:
                    f4:01:7b:77:5a:83:1d:39:6b:f5:ee:53:08:13:0a:
                    ac:dc:48:dd:3e:66:19:c1:91:78:c6:e4:17:04:0f:
                    de:5f:8c:ee:b5:21:88:7d:c8:7d:1f:57:88:6f:0f:
                    a6:b0:23:ba:4a:57:b0:8d:4d:df:de:39:7a:34:56:
                    bc:48:26:35:2c:26:49:09:65:c3:7f:04:dd:a0:bd:
                    bd:99:66:74:69:ae:db:e0:93:80:e9:fc:7b:99:84:
                    2b:f2:e5:73:e6:7f:df:5b:ea:53:78:1d:ab:0b:e5:
                    72:d9:5e:2f:56:8b:9d:53:71:3c:51:24:3d:dc:60:
                    7e:67:98:6d:20:44:3b:89:66:81:2d:2d:46:d3:a4:
                    a1:92:6a:02:3f:37:c0:12:99:ee:ed:0d:b8:24:e2:
                    a6:b5:c4:b7:3b:d8:24:a9:f4:b1:be:8f:81:a4:8d:
                    bf:52:07:07:c0:78:80:42:55:52:e9:32:66:13:43:
                    a6:34:50:66:b1:93:fb:f4:ac:0f:40:fe:29:08:3e:
                    a9:e2:cc:14:40:e0:c1:96:e0:3b:ac:4a:ee:64:74:
                    a5:5f
                Exponent: 65537 (0x10001)
        X509v3 extensions:
            X509v3 Subject Key Identifier: 
                15:D4:D1:9C:09:FA:96:33:74:FA:6F:0F:6A:2B:3A:87:95:1F:8C:ED
            X509v3 Authority Key Identifier: 
                0B:BC:69:DE:76:57:96:14:DF:60:A8:D9:D7:92:74:39:2D:B6:EE:A9
            X509v3 Basic Constraints: critical
                CA:FALSE
            Netscape Cert Type: 
                SSL Server
            X509v3 Key Usage: critical
                Digital Signature, Key Encipherment
            X509v3 Extended Key Usage: 
                TLS Web Server Authentication
            X509v3 CRL Distribution Points: 
                Full Name:
                  URI:http://crl.tls-experts.no/intermediate_crl.der
            Authority Information Access: 
                OCSP - URI:http://ocsp.tls-experts.no/
    Signature Algorithm: sha256WithRSAEncryption
    Signature Value:
        82:c2:a5:b9:a8:9a:c3:45:14:ba:9f:ce:2d:83:e8:08:3a:15:
        2d:f4:d6:ca:86:0c:45:0a:38:f8:d5:43:e4:5f:7d:03:03:1d:
        b5:f5:5e:3c:d6:26:b1:bc:61:0a:43:18:6d:c6:59:f7:1c:78:
        a5:e2:de:ac:3e:d4:93:24:b2:db:e1:32:a3:5e:c1:95:6b:fa:
        64:a1:26:39:a9:89:09:5c:ad:ec:a4:90:c9:53:02:e1:25:e7:
        15:9c:43:d0:32:51:dd:51:33:2d:9f:e8:77:6c:69:ab:7b:71:
        e5:d6:3f:fb:1c:06:83:22:59:da:a0:8b:5c:06:e7:81:b7:ce:
        a8:73:d3:31:e0:4f:d9:2b:13:e6:24:f4:a8:60:00:56:51:ec:
        5b:bf:04:e1:c0:f3:78:c8:a6:49:c7:e7:06:e6:2a:7a:65:b2:
        ca:1c:5b:0b:e7:79:2e:8d:19:c6:36:95:9c:d4:02:b0:04:03:
        63:ad:64:fd:a5:a5:c9:9d:fb:98:2e:9c:d8:b8:84:e6:95:ad:
        3c:28:e1:e0:4e:2e:7c:19:f8:27:1e:29:3f:6e:d3:87:be:cd:
        14:1a:49:4d:7e:8d:9c:38:30:6b:37:b4:e6:c9:0f:00:fa:92:
        e7:47:f2:60:f9:3c:d2:81:d9:8a:e5:6b:db:d1:a6:31:9e:24:
        85:d4:5c:e5
-----BEGIN CERTIFICATE-----
MIIESTCCAzGgAwIBAgIUaYTCz6zczFzGdYutoSesmF8U2b8wDQYJKoZIhvcNAQEL
BQAwWzELMAkGA1UEBhMCTk8xDTALBgNVBAgMBE9zbG8xDTALBgNVBAcMBE9zbG8x
FDASBgNVBAoMC1RMUyBFeHBlcnRzMRgwFgYDVQQDDA9JbnRlcm1lZGlhdGUgQ0Ew
HhcNMjMxMDExMTY1MjM3WhcNMjQxMDEwMTY1MjM3WjBaMQswCQYDVQQGEwJOTzEN
MAsGA1UECAwET3NsbzENMAsGA1UEBwwET3NsbzEUMBIGA1UECgwLVExTIEV4cGVy
dHMxFzAVBgNVBAMMDk9DU1AgUmVzcG9uZGVyMIIBIjANBgkqhkiG9w0BAQEFAAOC
AQ8AMIIBCgKCAQEAyKvR87Yk4omuMXea1275ZeEoPsF9Cmvr9WvZoeJf0GAq0E5i
Dy13fgO62/j0AXt3WoMdOWv17lMIEwqs3EjdPmYZwZF4xuQXBA/eX4zutSGIfch9
H1eIbw+msCO6SlewjU3f3jl6NFa8SCY1LCZJCWXDfwTdoL29mWZ0aa7b4JOA6fx7
mYQr8uVz5n/fW+pTeB2rC+Vy2V4vVoudU3E8USQ93GB+Z5htIEQ7iWaBLS1G06Sh
kmoCPzfAEpnu7Q24JOKmtcS3O9gkqfSxvo+BpI2/UgcHwHiAQlVS6TJmE0OmNFBm
sZP79KwPQP4pCD6p4swUQODBluA7rEruZHSlXwIDAQABo4IBBDCCAQAwHQYDVR0O
BBYEFBXU0ZwJ+pYzdPpvD2orOoeVH4ztMB8GA1UdIwQYMBaAFAu8ad52V5YU32Co
2deSdDkttu6pMAwGA1UdEwEB/wQCMAAwEQYJYIZIAYb4QgEBBAQDAgZAMA4GA1Ud
DwEB/wQEAwIFoDATBgNVHSUEDDAKBggrBgEFBQcDATA/BgNVHR8EODA2MDSgMqAw
hi5odHRwOi8vY3JsLnRscy1leHBlcnRzLm5vL2ludGVybWVkaWF0ZV9jcmwuZGVy
MDcGCCsGAQUFBwEBBCswKTAnBggrBgEFBQcwAYYbaHR0cDovL29jc3AudGxzLWV4
cGVydHMubm8vMA0GCSqGSIb3DQEBCwUAA4IBAQCCwqW5qJrDRRS6n84tg+gIOhUt
9NbKhgxFCjj41UPkX30DAx219V481iaxvGEKQxhtxln3HHil4t6sPtSTJLLb4TKj
XsGVa/pkoSY5qYkJXK3spJDJUwLhJecVnEPQMlHdUTMtn+h3bGmre3Hl1j/7HAaD
IlnaoItcBueBt86oc9Mx4E/ZKxPmJPSoYABWUexbvwThwPN4yKZJx+cG5ip6ZbLK
HFsL53kujRnGNpWc1AKwBANjrWT9paXJnfuYLpzYuITmla08KOHgTi58GfgnHik/
btOHvs0UGklNfo2cODBrN7TmyQ8A+pLnR/Jg+TzSgdmK5Wvb0aYxniSF1Fzl
-----END CERTIFICATE-----
