Certificate Request:
    Data:
        Version: 1 (0x0)
        Subject: C = NO, ST = Oslo, L = Oslo, O = TLS Experts, CN = Intermediate CA
        Subject Public Key Info:
            Public Key Algorithm: rsaEncryption
                Public-Key: (2048 bit)
                Modulus:
                    00:b5:09:d0:f6:66:df:f3:78:db:82:6d:f3:2f:e5:
                    4b:63:f9:70:49:9d:bd:8d:e2:5b:6a:fa:6c:21:12:
                    9b:00:9e:be:ac:d7:d3:2e:d9:52:5b:ee:64:c5:92:
                    3f:e7:dd:b1:d6:c8:26:67:09:81:b3:87:00:9c:64:
                    f3:f1:ab:56:11:50:e6:51:6d:5a:b4:7c:62:e5:44:
                    fa:3b:35:73:4c:98:2d:90:eb:d8:cb:b4:d8:13:25:
                    7f:09:78:b7:06:f9:86:64:83:d7:8f:f7:3d:a2:86:
                    b9:16:fe:1c:c2:75:6c:37:51:c1:9d:df:68:f9:45:
                    97:30:73:d8:e4:13:7d:4a:15:8b:3d:f3:7a:80:24:
                    3f:48:37:c1:50:d7:32:0c:28:27:60:d8:27:2f:51:
                    e4:ab:e0:07:8c:d2:26:12:f1:0e:29:5e:c4:cd:c1:
                    c2:1d:e4:e1:48:5c:e5:7e:34:f7:93:7c:51:72:9e:
                    c9:5e:ae:f3:c6:95:ca:ea:f0:cb:13:43:7a:ea:30:
                    e1:3b:d2:7e:48:45:93:74:a7:33:e6:96:b0:f3:c7:
                    11:d4:38:30:fa:f8:ee:44:b1:c4:fe:ba:c0:ab:9a:
                    be:f9:d2:7a:c8:10:51:a1:30:cc:b6:9b:5d:c2:a6:
                    84:f7:da:62:82:20:6c:1b:90:b8:78:c8:fb:cf:38:
                    17:ab
                Exponent: 65537 (0x10001)
        Attributes:
            (none)
            Requested Extensions:
    Signature Algorithm: sha256WithRSAEncryption
    Signature Value:
        59:b5:c8:c7:07:1b:1e:9e:b3:79:30:6a:3f:e6:23:56:4f:f7:
        f1:1f:30:9d:9e:4d:13:09:d3:ec:48:42:d2:f9:cd:d6:9c:39:
        30:36:3d:1f:53:0c:58:eb:c2:62:59:55:d4:11:71:f4:24:fa:
        c0:75:a2:80:61:c9:e4:4e:40:1e:47:e0:8f:b1:78:db:4b:58:
        ec:c6:eb:4d:2b:68:90:a1:c1:20:dd:75:ff:74:3b:61:e8:7f:
        49:c3:b1:73:f3:88:3f:57:7d:36:63:7c:19:a5:c1:d5:7c:23:
        56:ef:b3:7f:17:c0:16:64:06:48:8a:d7:a1:f0:6d:24:56:5e:
        1e:c2:fd:98:93:e3:79:05:b7:7d:4d:82:e6:76:d6:24:0b:75:
        0e:ab:23:8d:25:44:b3:9f:f5:0b:57:19:54:e8:0e:f6:71:25:
        9b:58:56:f0:a6:39:61:4c:8e:d1:c9:2c:c0:ad:de:44:e0:34:
        b3:3c:03:8e:b2:7f:77:7b:33:6a:af:0f:5c:ac:9d:3a:43:92:
        9a:07:85:b4:cd:ef:2b:f8:6b:57:a3:db:90:7b:32:a5:f8:a0:
        6a:d0:b1:10:de:52:16:4b:14:90:eb:e0:92:92:c8:90:c9:ed:
        6f:f6:ff:81:62:2f:26:12:09:44:3f:6e:56:28:b1:be:c6:db:
        0c:a4:7c:5a
-----BEGIN CERTIFICATE REQUEST-----
MIICoDCCAYgCAQAwWzELMAkGA1UEBhMCTk8xDTALBgNVBAgMBE9zbG8xDTALBgNV
BAcMBE9zbG8xFDASBgNVBAoMC1RMUyBFeHBlcnRzMRgwFgYDVQQDDA9JbnRlcm1l
ZGlhdGUgQ0EwggEiMA0GCSqGSIb3DQEBAQUAA4IBDwAwggEKAoIBAQC1CdD2Zt/z
eNuCbfMv5Utj+XBJnb2N4ltq+mwhEpsAnr6s19Mu2VJb7mTFkj/n3bHWyCZnCYGz
hwCcZPPxq1YRUOZRbVq0fGLlRPo7NXNMmC2Q69jLtNgTJX8JeLcG+YZkg9eP9z2i
hrkW/hzCdWw3UcGd32j5RZcwc9jkE31KFYs983qAJD9IN8FQ1zIMKCdg2CcvUeSr
4AeM0iYS8Q4pXsTNwcId5OFIXOV+NPeTfFFynslervPGlcrq8MsTQ3rqMOE70n5I
RZN0pzPmlrDzxxHUODD6+O5EscT+usCrmr750nrIEFGhMMy2m13CpoT32mKCIGwb
kLh4yPvPOBerAgMBAAGgADANBgkqhkiG9w0BAQsFAAOCAQEAWbXIxwcbHp6zeTBq
P+YjVk/38R8wnZ5NEwnT7EhC0vnN1pw5MDY9H1MMWOvCYllV1BFx9CT6wHWigGHJ
5E5AHkfgj7F420tY7MbrTStokKHBIN11/3Q7Yeh/ScOxc/OIP1d9NmN8GaXB1Xwj
Vu+zfxfAFmQGSIrXofBtJFZeHsL9mJPjeQW3fU2C5nbWJAt1DqsjjSVEs5/1C1cZ
VOgO9nElm1hW8KY5YUyO0ckswK3eROA0szwDjrJ/d3szaq8PXKydOkOSmgeFtM3v
K/hrV6PbkHsypfigatCxEN5SFksUkOvgkpLIkMntb/b/gWIvJhIJRD9uViixvsbb
DKR8Wg==
-----END CERTIFICATE REQUEST-----
