Certificate Request:
    Data:
        Version: 1 (0x0)
        Subject: C = NO, ST = Oslo, L = Oslo, O = TLS Experts, CN = server2.tls-experts.no
        Subject Public Key Info:
            Public Key Algorithm: rsaEncryption
                Public-Key: (2048 bit)
                Modulus:
                    00:c0:5a:4d:31:de:53:03:cb:01:63:36:4e:6c:e0:
                    41:75:ea:42:76:2c:c5:83:f6:b4:d7:d0:ea:4e:ec:
                    eb:94:c3:4b:2e:24:b6:3b:4b:b3:f0:19:fe:41:17:
                    9b:79:17:3f:fe:09:dd:ce:ae:f2:c9:91:a2:01:e0:
                    f8:54:12:b9:03:b5:2d:d5:bd:76:c1:f3:46:71:f7:
                    8a:ea:af:d5:40:48:12:51:8f:7d:93:d8:a8:27:1d:
                    09:ec:f0:52:3b:94:95:cf:f5:47:54:ba:16:3b:d1:
                    a9:6c:1f:b4:27:22:27:80:b7:48:5c:23:a8:cc:b3:
                    84:45:f6:52:b8:81:36:c6:2e:98:3e:8f:f3:a0:6c:
                    3e:eb:b4:6e:1a:bc:62:ba:fd:66:b4:81:9e:93:3e:
                    47:fd:73:0f:ae:54:39:b8:9c:aa:76:44:1f:df:9a:
                    62:b3:cd:6f:7d:7d:b0:ec:75:b0:de:16:84:0e:da:
                    88:b2:23:a0:ba:5c:ac:ea:a0:75:90:a6:2b:9d:05:
                    e7:20:49:3c:eb:fe:27:13:30:4c:f1:c2:5f:ce:96:
                    f1:fd:77:2c:a5:38:8e:52:2f:4b:50:bb:32:73:ea:
                    4d:97:5d:8f:7b:24:d9:18:13:72:b1:0e:bf:b9:c0:
                    7f:3d:17:fe:54:66:66:64:13:f0:4d:3b:5e:16:b1:
                    6e:8d
                Exponent: 65537 (0x10001)
        Attributes:
            (none)
            Requested Extensions:
    Signature Algorithm: sha256WithRSAEncryption
    Signature Value:
        65:15:b1:24:b5:b0:aa:fc:6f:2c:4d:9d:93:fe:f2:98:44:b7:
        36:18:18:b9:6b:95:cb:e2:67:78:28:48:2c:e8:c6:2a:83:14:
        cd:87:c4:93:61:21:90:a1:b6:3d:b5:38:31:c4:5a:7b:d4:46:
        06:4b:51:4b:9c:f0:b1:57:56:6a:58:fc:72:81:90:8d:47:8e:
        30:41:7c:f1:68:36:3c:14:c2:6f:08:34:a9:35:e0:eb:21:93:
        ad:12:49:67:64:b0:f5:9d:c6:ca:61:bf:6b:73:c1:c4:15:3a:
        9d:ce:27:80:8a:94:8c:2b:fc:1c:bf:c0:d6:4f:a2:0c:08:f6:
        df:ab:27:96:59:ca:45:9d:8e:b1:0f:7f:1a:84:7c:03:62:69:
        fc:29:9c:d3:97:68:a3:e6:64:ec:95:39:de:46:7d:9e:d5:db:
        12:9a:15:51:70:67:e8:fa:47:f8:0c:e7:e3:db:e8:05:0f:4b:
        a3:df:51:f8:76:25:bf:9a:73:fe:5d:cf:97:7f:db:20:6c:7f:
        7b:a9:d9:28:9d:00:1c:c1:41:b9:c3:83:31:ae:d1:18:38:27:
        82:d5:97:df:f9:e6:67:b7:35:e5:b7:de:2a:73:96:dc:1a:21:
        bd:8d:3c:57:85:3f:fa:e5:21:9e:d4:ae:3a:a4:dc:8f:66:29:
        3b:27:be:52
-----BEGIN CERTIFICATE REQUEST-----
MIICpzCCAY8CAQAwYjELMAkGA1UEBhMCTk8xDTALBgNVBAgMBE9zbG8xDTALBgNV
BAcMBE9zbG8xFDASBgNVBAoMC1RMUyBFeHBlcnRzMR8wHQYDVQQDDBZzZXJ2ZXIy
LnRscy1leHBlcnRzLm5vMIIBIjANBgkqhkiG9w0BAQEFAAOCAQ8AMIIBCgKCAQEA
wFpNMd5TA8sBYzZObOBBdepCdizFg/a019DqTuzrlMNLLiS2O0uz8Bn+QRebeRc/
/gndzq7yyZGiAeD4VBK5A7Ut1b12wfNGcfeK6q/VQEgSUY99k9ioJx0J7PBSO5SV
z/VHVLoWO9GpbB+0JyIngLdIXCOozLOERfZSuIE2xi6YPo/zoGw+67RuGrxiuv1m
tIGekz5H/XMPrlQ5uJyqdkQf35pis81vfX2w7HWw3haEDtqIsiOgulys6qB1kKYr
nQXnIEk86/4nEzBM8cJfzpbx/XcspTiOUi9LULsyc+pNl12PeyTZGBNysQ6/ucB/
PRf+VGZmZBPwTTteFrFujQIDAQABoAAwDQYJKoZIhvcNAQELBQADggEBAGUVsSS1
sKr8byxNnZP+8phEtzYYGLlrlcviZ3goSCzoxiqDFM2HxJNhIZChtj21ODHEWnvU
RgZLUUuc8LFXVmpY/HKBkI1HjjBBfPFoNjwUwm8INKk14Oshk60SSWdksPWdxsph
v2tzwcQVOp3OJ4CKlIwr/By/wNZPogwI9t+rJ5ZZykWdjrEPfxqEfANiafwpnNOX
aKPmZOyVOd5GfZ7V2xKaFVFwZ+j6R/gM5+Pb6AUPS6PfUfh2Jb+ac/5dz5d/2yBs
f3up2SidABzBQbnDgzGu0Rg4J4LVl9/55me3NeW33ipzltwaIb2NPFeFP/rlIZ7U
rjqk3I9mKTsnvlI=
-----END CERTIFICATE REQUEST-----
