Certificate Request:
    Data:
        Version: 1 (0x0)
        Subject: C = NO, ST = Oslo, L = Oslo, O = TLS Experts, CN = internal.tls-experts.no
        Subject Public Key Info:
            Public Key Algorithm: rsaEncryption
                Public-Key: (2048 bit)
                Modulus:
                    00:9f:a7:41:d6:45:74:d0:c0:01:e7:6b:0f:c6:a8:
                    8d:dc:81:3c:41:b6:c5:1b:88:d1:5c:01:fc:7e:f9:
                    0c:85:e3:97:5b:0f:1e:4f:d0:1c:07:93:19:4b:18:
                    4b:71:5d:d4:7d:fd:9d:2e:89:88:0f:00:f1:42:78:
                    c3:db:9d:89:ed:c7:eb:6f:00:08:7f:c4:67:f8:15:
                    61:5a:e3:f5:09:b5:d9:2f:ba:30:c5:ed:32:dc:6f:
                    39:8f:7f:80:22:a6:cb:ef:5d:df:04:cd:14:d7:22:
                    90:71:cb:a9:cf:7e:86:28:75:d3:33:1a:87:3d:a5:
                    91:49:0d:4e:9d:6a:6d:cd:25:26:0c:94:16:eb:f6:
                    10:43:c2:3f:e3:2e:cb:21:bb:62:c7:c0:29:05:60:
                    86:3e:ee:54:c4:77:fa:9c:fc:1d:a6:de:9b:62:d7:
                    8a:6c:01:85:e0:36:c5:9f:66:de:ec:1c:d7:91:cf:
                    cb:ac:05:ec:cd:ee:c0:89:f3:b3:2e:48:ce:a1:66:
                    52:74:00:c9:9b:ef:d2:8c:86:d2:f7:d6:cb:69:0b:
                    70:9d:a7:0b:28:d3:23:69:c2:48:7f:ad:34:74:6b:
                    34:f3:7c:ca:2a:e0:c2:49:97:90:6f:4e:8e:0c:0f:
                    7e:61:66:2f:c6:4a:7a:10:88:30:ef:ce:e9:52:74:
                    47:e3
                Exponent: 65537 (0x10001)
        Attributes:
            Requested Extensions:
                X509v3 Subject Alternative Name: 
                    DNS:mirror1.tls-experts.no, DNS:mirror2.tls-experts.no
    Signature Algorithm: sha256WithRSAEncryption
    Signature Value:
        8b:03:47:09:44:7c:26:9d:bd:29:44:d1:d0:5d:2a:d8:fe:4f:
        43:bc:50:ee:ae:7c:59:32:16:83:12:fe:5c:cc:af:98:ec:53:
        13:ff:0f:b2:ab:2d:6c:ea:e2:e7:73:e4:05:83:95:4f:ec:d5:
        58:43:94:0a:da:9d:3b:03:ae:0a:c2:fb:d7:94:81:cf:53:96:
        ec:3d:c9:4f:b5:4d:d4:42:06:62:9e:18:26:1a:0f:db:bd:3a:
        03:bf:15:66:69:28:14:db:de:84:9a:2d:f2:ab:96:9b:e4:a7:
        c2:94:51:06:29:a3:d9:4c:60:f9:9d:de:9e:c2:90:aa:e8:21:
        62:2b:92:d7:5b:14:6e:42:15:6a:43:87:8c:c2:cc:cf:18:5b:
        82:79:c3:26:45:39:93:63:70:70:a0:96:cc:1f:d5:c9:5b:80:
        bd:a0:9f:c7:cc:03:78:19:93:22:f4:e7:3b:47:7c:76:70:ba:
        ee:06:43:03:89:39:f9:f8:2a:5a:0f:ae:72:d4:80:ec:a0:79:
        d8:f3:e7:d4:b8:58:ce:8f:dc:74:ba:a5:be:06:52:99:89:1c:
        f7:54:8e:7b:ef:4e:d4:5c:ff:1a:b7:39:87:b8:f7:92:41:26:
        37:d1:12:6a:67:72:2e:3f:70:41:0c:00:50:19:e4:36:9c:0f:
        49:29:56:ea
-----BEGIN CERTIFICATE REQUEST-----
MIIC9DCCAdwCAQAwYzELMAkGA1UEBhMCTk8xDTALBgNVBAgMBE9zbG8xDTALBgNV
BAcMBE9zbG8xFDASBgNVBAoMC1RMUyBFeHBlcnRzMSAwHgYDVQQDDBdpbnRlcm5h
bC50bHMtZXhwZXJ0cy5ubzCCASIwDQYJKoZIhvcNAQEBBQADggEPADCCAQoCggEB
AJ+nQdZFdNDAAedrD8aojdyBPEG2xRuI0VwB/H75DIXjl1sPHk/QHAeTGUsYS3Fd
1H39nS6JiA8A8UJ4w9udie3H628ACH/EZ/gVYVrj9Qm12S+6MMXtMtxvOY9/gCKm
y+9d3wTNFNcikHHLqc9+hih10zMahz2lkUkNTp1qbc0lJgyUFuv2EEPCP+MuyyG7
YsfAKQVghj7uVMR3+pz8Habem2LXimwBheA2xZ9m3uwc15HPy6wF7M3uwInzsy5I
zqFmUnQAyZvv0oyG0vfWy2kLcJ2nCyjTI2nCSH+tNHRrNPN8yirgwkmXkG9OjgwP
fmFmL8ZKehCIMO/O6VJ0R+MCAwEAAaBMMEoGCSqGSIb3DQEJDjE9MDswOQYDVR0R
BDIwMIIWbWlycm9yMS50bHMtZXhwZXJ0cy5ub4IWbWlycm9yMi50bHMtZXhwZXJ0
cy5ubzANBgkqhkiG9w0BAQsFAAOCAQEAiwNHCUR8Jp29KUTR0F0q2P5PQ7xQ7q58
WTIWgxL+XMyvmOxTE/8PsqstbOri53PkBYOVT+zVWEOUCtqdOwOuCsL715SBz1OW
7D3JT7VN1EIGYp4YJhoP2706A78VZmkoFNvehJot8quWm+SnwpRRBimj2Uxg+Z3e
nsKQqughYiuS11sUbkIVakOHjMLMzxhbgnnDJkU5k2NwcKCWzB/VyVuAvaCfx8wD
eBmTIvTnO0d8dnC67gZDA4k5+fgqWg+uctSA7KB52PPn1LhYzo/cdLqlvgZSmYkc
91SOe+9O1Fz/Grc5h7j3kkEmN9ESamdyLj9wQQwAUBnkNpwPSSlW6g==
-----END CERTIFICATE REQUEST-----
