Certificate:
    Data:
        Version: 3 (0x2)
        Serial Number:
            13:65:19:b0:6f:f9:36:75:4f:79:1c:34:df:ef:c6:44:16:27:d2:aa
        Signature Algorithm: sha256WithRSAEncryption
        Issuer: C=NO, ST=Oslo, L=Oslo, O=TLS Experts, CN=Root CA
        Validity
            Not Before: Oct 11 14:41:13 2023 GMT
            Not After : Oct  8 14:41:13 2033 GMT
        Subject: C=NO, ST=Oslo, L=Oslo, O=TLS Experts, CN=Intermediate CA
        Subject Public Key Info:
            Public Key Algorithm: rsaEncryption
                Public-Key: (2048 bit)
                Modulus:
                    00:b5:09:d0:f6:66:df:f3:78:db:82:6d:f3:2f:e5:
                    4b:63:f9:70:49:9d:bd:8d:e2:5b:6a:fa:6c:21:12:
                    9b:00:9e:be:ac:d7:d3:2e:d9:52:5b:ee:64:c5:92:
                    3f:e7:dd:b1:d6:c8:26:67:09:81:b3:87:00:9c:64:
                    f3:f1:ab:56:11:50:e6:51:6d:5a:b4:7c:62:e5:44:
                    fa:3b:35:73:4c:98:2d:90:eb:d8:cb:b4:d8:13:25:
                    7f:09:78:b7:06:f9:86:64:83:d7:8f:f7:3d:a2:86:
                    b9:16:fe:1c:c2:75:6c:37:51:c1:9d:df:68:f9:45:
                    97:30:73:d8:e4:13:7d:4a:15:8b:3d:f3:7a:80:24:
                    3f:48:37:c1:50:d7:32:0c:28:27:60:d8:27:2f:51:
                    e4:ab:e0:07:8c:d2:26:12:f1:0e:29:5e:c4:cd:c1:
                    c2:1d:e4:e1:48:5c:e5:7e:34:f7:93:7c:51:72:9e:
                    c9:5e:ae:f3:c6:95:ca:ea:f0:cb:13:43:7a:ea:30:
                    e1:3b:d2:7e:48:45:93:74:a7:33:e6:96:b0:f3:c7:
                    11:d4:38:30:fa:f8:ee:44:b1:c4:fe:ba:c0:ab:9a:
                    be:f9:d2:7a:c8:10:51:a1:30:cc:b6:9b:5d:c2:a6:
                    84:f7:da:62:82:20:6c:1b:90:b8:78:c8:fb:cf:38:
                    17:ab
                Exponent: 65537 (0x10001)
        X509v3 extensions:
            X509v3 Subject Key Identifier: 
                0B:BC:69:DE:76:57:96:14:DF:60:A8:D9:D7:92:74:39:2D:B6:EE:A9
            X509v3 Authority Key Identifier: 
                DA:B7:2C:89:7E:7B:D2:BC:1D:4D:11:E5:37:46:BC:B0:99:A0:B3:12
            X509v3 Basic Constraints: critical
                CA:TRUE, pathlen:0
            X509v3 Key Usage: critical
                Digital Signature, Certificate Sign, CRL Sign
            X509v3 CRL Distribution Points: 
                Full Name:
                  URI:http://crl.tls-experts.no/root_crl.der
    Signature Algorithm: sha256WithRSAEncryption
    Signature Value:
        a4:03:2d:67:0a:3b:3d:44:0c:aa:2b:c8:4b:24:4e:bd:d9:7a:
        dd:32:e6:7d:90:79:b9:45:d0:f4:6f:03:12:10:06:c3:e2:ff:
        1f:a0:69:d9:46:16:d5:8b:31:e8:2c:bd:65:f5:28:b9:09:c5:
        b0:90:6d:4a:05:c5:f1:a9:49:27:42:c9:91:f5:a7:85:4a:43:
        41:16:8b:a4:88:45:15:0e:c2:72:72:b6:c9:f1:92:ba:27:f0:
        5f:13:2f:e1:ee:87:ef:66:cc:26:d0:5e:d6:e7:5b:0b:b2:37:
        78:8b:c6:2b:ca:db:e4:67:11:8a:f2:00:85:26:6c:3f:95:ac:
        d7:55:40:d4:67:7f:fa:3d:cd:06:c2:4d:63:ea:a1:1b:c2:b6:
        bb:a2:2d:10:f0:be:86:95:68:54:02:25:3b:cf:76:d9:26:f8:
        81:d2:f0:c4:61:79:3b:9b:45:23:30:a9:cc:5b:73:3f:9b:55:
        89:20:40:b5:c0:ff:7e:d4:67:a5:a1:67:50:3b:58:07:01:e4:
        7f:43:2a:f8:5a:2d:20:82:cf:45:d5:7b:e0:35:60:d0:e6:6e:
        68:a4:8d:a8:fc:ef:76:71:80:a1:15:64:fd:6e:00:2e:6a:67:
        c6:40:23:00:ce:b2:f0:b4:cb:fa:3c:5e:d9:0f:a2:b2:2e:fc:
        a2:50:bf:c9
-----BEGIN CERTIFICATE-----
MIID3TCCAsWgAwIBAgIUE2UZsG/5NnVPeRw03+/GRBYn0qowDQYJKoZIhvcNAQEL
BQAwUzELMAkGA1UEBhMCTk8xDTALBgNVBAgMBE9zbG8xDTALBgNVBAcMBE9zbG8x
FDASBgNVBAoMC1RMUyBFeHBlcnRzMRAwDgYDVQQDDAdSb290IENBMB4XDTIzMTAx
MTE0NDExM1oXDTMzMTAwODE0NDExM1owWzELMAkGA1UEBhMCTk8xDTALBgNVBAgM
BE9zbG8xDTALBgNVBAcMBE9zbG8xFDASBgNVBAoMC1RMUyBFeHBlcnRzMRgwFgYD
VQQDDA9JbnRlcm1lZGlhdGUgQ0EwggEiMA0GCSqGSIb3DQEBAQUAA4IBDwAwggEK
AoIBAQC1CdD2Zt/zeNuCbfMv5Utj+XBJnb2N4ltq+mwhEpsAnr6s19Mu2VJb7mTF
kj/n3bHWyCZnCYGzhwCcZPPxq1YRUOZRbVq0fGLlRPo7NXNMmC2Q69jLtNgTJX8J
eLcG+YZkg9eP9z2ihrkW/hzCdWw3UcGd32j5RZcwc9jkE31KFYs983qAJD9IN8FQ
1zIMKCdg2CcvUeSr4AeM0iYS8Q4pXsTNwcId5OFIXOV+NPeTfFFynslervPGlcrq
8MsTQ3rqMOE70n5IRZN0pzPmlrDzxxHUODD6+O5EscT+usCrmr750nrIEFGhMMy2
m13CpoT32mKCIGwbkLh4yPvPOBerAgMBAAGjgaAwgZ0wHQYDVR0OBBYEFAu8ad52
V5YU32Co2deSdDkttu6pMB8GA1UdIwQYMBaAFNq3LIl+e9K8HU0R5TdGvLCZoLMS
MBIGA1UdEwEB/wQIMAYBAf8CAQAwDgYDVR0PAQH/BAQDAgGGMDcGA1UdHwQwMC4w
LKAqoCiGJmh0dHA6Ly9jcmwudGxzLWV4cGVydHMubm8vcm9vdF9jcmwuZGVyMA0G
CSqGSIb3DQEBCwUAA4IBAQCkAy1nCjs9RAyqK8hLJE692XrdMuZ9kHm5RdD0bwMS
EAbD4v8foGnZRhbVizHoLL1l9Si5CcWwkG1KBcXxqUknQsmR9aeFSkNBFoukiEUV
DsJycrbJ8ZK6J/BfEy/h7ofvZswm0F7W51sLsjd4i8YrytvkZxGK8gCFJmw/lazX
VUDUZ3/6Pc0Gwk1j6qEbwra7oi0Q8L6GlWhUAiU7z3bZJviB0vDEYXk7m0UjMKnM
W3M/m1WJIEC1wP9+1GeloWdQO1gHAeR/Qyr4Wi0ggs9F1XvgNWDQ5m5opI2o/O92
cYChFWT9bgAuamfGQCMAzrLwtMv6PF7ZD6KyLvyiUL/J
-----END CERTIFICATE-----
Certificate:
    Data:
        Version: 3 (0x2)
        Serial Number:
            50:1b:a2:b2:35:46:ec:fe:36:0d:58:d2:2e:e2:d6:d8:ae:58:f0:2c
        Signature Algorithm: sha256WithRSAEncryption
        Issuer: C=NO, ST=Oslo, L=Oslo, O=TLS Experts, CN=Root CA
        Validity
            Not Before: Oct 11 14:23:34 2023 GMT
            Not After : Oct  8 14:23:34 2033 GMT
        Subject: C=NO, ST=Oslo, L=Oslo, O=TLS Experts, CN=Root CA
        Subject Public Key Info:
            Public Key Algorithm: rsaEncryption
                Public-Key: (2048 bit)
                Modulus:
                    00:fc:e4:03:eb:fe:24:b8:f2:89:3f:23:01:b6:c8:
                    34:1b:33:8a:58:89:51:f1:06:88:5f:3d:25:9f:ab:
                    32:26:96:27:45:5a:62:10:cb:9a:17:c1:be:e0:8a:
                    fa:fc:5b:f7:8c:5d:2a:02:ed:dd:75:f4:bd:88:65:
                    d0:e5:1f:61:92:51:e5:ba:cd:7b:4b:d1:e1:b6:b7:
                    ae:63:b7:5e:9e:a4:6d:57:79:de:ba:51:45:58:84:
                    75:fc:6c:c1:f5:d8:a6:7a:a4:48:82:6a:c1:4c:e0:
                    63:a7:20:9b:85:1f:33:71:6b:b2:62:dc:0d:63:70:
                    5d:fb:23:b1:24:f4:53:24:c1:15:08:25:9e:74:76:
                    4c:d4:b3:71:85:ee:bc:27:d8:5c:79:0e:d2:08:3e:
                    23:4a:30:fc:ea:8b:e3:2a:78:2a:78:9e:f2:cd:9c:
                    09:12:cb:03:c5:35:6b:9c:65:73:80:f0:74:fe:5d:
                    33:e2:14:72:53:30:f5:b9:80:ae:27:c0:8b:48:19:
                    c4:06:53:71:62:71:ab:e7:b7:6e:64:71:fb:f1:31:
                    9a:6e:51:3e:ce:ac:51:28:b7:96:20:ca:c8:6e:fa:
                    c0:fd:92:4d:fc:82:a7:73:09:af:b1:36:34:5c:10:
                    03:e4:5d:f9:f0:b8:20:e5:f1:e8:e7:d8:2a:46:f8:
                    9b:0f
                Exponent: 65537 (0x10001)
        X509v3 extensions:
            X509v3 Subject Key Identifier: 
                DA:B7:2C:89:7E:7B:D2:BC:1D:4D:11:E5:37:46:BC:B0:99:A0:B3:12
            X509v3 Authority Key Identifier: 
                DA:B7:2C:89:7E:7B:D2:BC:1D:4D:11:E5:37:46:BC:B0:99:A0:B3:12
            X509v3 Basic Constraints: critical
                CA:TRUE
            X509v3 Key Usage: critical
                Digital Signature, Certificate Sign, CRL Sign
            X509v3 CRL Distribution Points: 
                Full Name:
                  URI:http://crl.tls-experts.no/root_crl.der
    Signature Algorithm: sha256WithRSAEncryption
    Signature Value:
        6f:80:b1:f0:20:28:d0:da:8c:ca:5b:5f:26:f5:13:cb:18:52:
        49:dd:43:2a:61:43:4b:9b:e3:d9:e1:05:91:92:f1:6e:12:85:
        b6:fc:58:17:34:76:56:5b:ab:62:2b:60:06:f2:22:2c:9c:94:
        05:3b:73:88:50:4c:9d:31:14:ca:7f:4e:06:d1:76:bd:4b:f9:
        37:e8:52:df:b9:dc:ef:33:a1:61:18:fe:75:d5:f6:26:15:c0:
        8f:3e:bf:55:cc:7d:af:99:92:37:2f:18:96:22:ea:13:80:fd:
        c7:cc:61:45:8a:36:df:1b:e4:fc:9a:c5:2f:ae:bd:38:cb:25:
        71:ad:53:d2:ac:03:c9:19:7b:59:64:29:f6:91:24:39:b4:53:
        3d:92:0e:3d:5f:be:5d:28:95:1c:b0:71:36:12:95:5c:be:2c:
        7c:54:5f:cf:00:92:e1:4c:3d:7c:e5:e8:84:5c:cb:c1:f0:08:
        aa:68:87:2b:98:68:ce:79:ec:ce:24:f8:c4:58:54:f2:06:a7:
        c8:66:40:f9:0e:f9:aa:86:d5:75:24:eb:e5:14:6a:99:07:82:
        45:be:01:e8:ac:14:6b:e8:0f:8e:6b:21:6c:cd:4e:9a:34:ed:
        af:7d:eb:86:43:93:d7:3d:9e:46:6e:2e:54:6d:16:dd:66:49:
        f6:75:f5:98
-----BEGIN CERTIFICATE-----
MIID0jCCArqgAwIBAgIUUBuisjVG7P42DVjSLuLW2K5Y8CwwDQYJKoZIhvcNAQEL
BQAwUzELMAkGA1UEBhMCTk8xDTALBgNVBAgMBE9zbG8xDTALBgNVBAcMBE9zbG8x
FDASBgNVBAoMC1RMUyBFeHBlcnRzMRAwDgYDVQQDDAdSb290IENBMB4XDTIzMTAx
MTE0MjMzNFoXDTMzMTAwODE0MjMzNFowUzELMAkGA1UEBhMCTk8xDTALBgNVBAgM
BE9zbG8xDTALBgNVBAcMBE9zbG8xFDASBgNVBAoMC1RMUyBFeHBlcnRzMRAwDgYD
VQQDDAdSb290IENBMIIBIjANBgkqhkiG9w0BAQEFAAOCAQ8AMIIBCgKCAQEA/OQD
6/4kuPKJPyMBtsg0GzOKWIlR8QaIXz0ln6syJpYnRVpiEMuaF8G+4Ir6/Fv3jF0q
Au3ddfS9iGXQ5R9hklHlus17S9HhtreuY7denqRtV3neulFFWIR1/GzB9dimeqRI
gmrBTOBjpyCbhR8zcWuyYtwNY3Bd+yOxJPRTJMEVCCWedHZM1LNxhe68J9hceQ7S
CD4jSjD86ovjKngqeJ7yzZwJEssDxTVrnGVzgPB0/l0z4hRyUzD1uYCuJ8CLSBnE
BlNxYnGr57duZHH78TGablE+zqxRKLeWIMrIbvrA/ZJN/IKncwmvsTY0XBAD5F35
8Lgg5fHo59gqRvibDwIDAQABo4GdMIGaMB0GA1UdDgQWBBTatyyJfnvSvB1NEeU3
RrywmaCzEjAfBgNVHSMEGDAWgBTatyyJfnvSvB1NEeU3RrywmaCzEjAPBgNVHRMB
Af8EBTADAQH/MA4GA1UdDwEB/wQEAwIBhjA3BgNVHR8EMDAuMCygKqAohiZodHRw
Oi8vY3JsLnRscy1leHBlcnRzLm5vL3Jvb3RfY3JsLmRlcjANBgkqhkiG9w0BAQsF
AAOCAQEAb4Cx8CAo0NqMyltfJvUTyxhSSd1DKmFDS5vj2eEFkZLxbhKFtvxYFzR2
VlurYitgBvIiLJyUBTtziFBMnTEUyn9OBtF2vUv5N+hS37nc7zOhYRj+ddX2JhXA
jz6/Vcx9r5mSNy8YliLqE4D9x8xhRYo23xvk/JrFL669OMslca1T0qwDyRl7WWQp
9pEkObRTPZIOPV++XSiVHLBxNhKVXL4sfFRfzwCS4Uw9fOXohFzLwfAIqmiHK5ho
znnsziT4xFhU8ganyGZA+Q75qobVdSTr5RRqmQeCRb4B6KwUa+gPjmshbM1OmjTt
r33rhkOT1z2eRm4uVG0W3WZJ9nX1mA==
-----END CERTIFICATE-----
