Certificate Request:
    Data:
        Version: 1 (0x0)
        Subject: C = NO, ST = Oslo, L = Oslo, O = TLS Experts, CN = Thor Odinson, emailAddress = thor@tls-experts.no
        Subject Public Key Info:
            Public Key Algorithm: rsaEncryption
                Public-Key: (2048 bit)
                Modulus:
                    00:b2:ad:de:9d:c9:0c:40:3e:d9:0c:e8:81:7b:59:
                    61:7f:ee:0b:3e:aa:2a:1f:b7:83:d8:d3:64:7f:41:
                    b9:51:e6:0e:fd:5a:ce:f6:28:60:cf:b7:82:99:2e:
                    b5:53:8c:87:53:86:c2:b0:6d:ec:d1:de:55:b7:41:
                    36:2a:2d:60:db:bc:d9:75:df:74:56:f3:03:d1:3d:
                    5e:4f:5d:2a:9c:91:d2:02:a6:42:57:6a:e8:1b:77:
                    46:86:51:ae:9a:6e:94:df:f2:db:98:87:91:d9:27:
                    86:b6:44:5d:06:cf:e4:2a:17:c2:b9:d9:11:f3:9a:
                    1f:95:c9:9c:3d:e6:38:dd:73:1a:6b:1f:04:43:e4:
                    af:4c:5d:14:85:20:ac:a3:27:b9:28:3c:4a:27:ed:
                    e2:93:22:ef:bd:01:f3:f2:16:4f:ba:61:cc:2c:e4:
                    2c:b9:d3:e6:11:05:31:3b:e6:cf:b6:b6:18:16:34:
                    a0:74:37:93:4e:7b:8a:5d:c0:b1:12:14:fe:c1:5b:
                    86:e9:96:03:73:09:4f:c1:03:37:12:b6:6c:0c:e7:
                    83:73:ad:86:ee:31:82:cd:21:ce:4d:1d:4c:96:72:
                    24:8b:0a:e3:d1:db:eb:fc:ce:73:74:9c:38:9a:00:
                    03:b8:26:29:0f:6b:b0:8b:a4:1f:b5:e9:e8:65:ee:
                    c7:3b
                Exponent: 65537 (0x10001)
        Attributes:
            Requested Extensions:
                X509v3 Subject Alternative Name: 
                    email:postmaster@tls-experts.no, email:hostmaster@tls-experts.no
    Signature Algorithm: sha256WithRSAEncryption
    Signature Value:
        ac:3e:66:d4:bf:ee:61:91:0a:05:b1:cc:00:80:96:67:d0:57:
        cb:19:69:23:17:5c:50:91:d1:6d:6c:b0:2f:7d:6c:a8:92:66:
        60:f7:60:16:3c:b5:c3:b2:ff:1e:1e:f3:57:79:31:63:b2:df:
        2a:91:40:15:e3:64:53:12:55:81:14:f1:dc:80:7f:15:32:f5:
        f4:67:03:0a:8b:c2:3c:d7:4b:6c:0e:87:3f:5e:9b:26:cd:b6:
        4c:63:07:32:15:80:8b:e9:e9:eb:a0:35:42:02:c9:2e:c1:eb:
        01:8a:a6:95:23:5c:45:ee:ad:b7:e7:46:ca:44:cf:e5:5d:5d:
        59:3a:01:39:ec:c9:3e:64:b4:44:99:79:08:a5:c3:0f:84:32:
        42:a0:1e:d3:ea:39:ff:51:32:14:41:4c:31:93:1c:88:bd:c0:
        28:a9:59:cc:37:65:be:b8:37:79:a7:6b:1b:ca:e2:f0:4f:95:
        09:de:1e:6d:cd:56:dd:91:64:9e:5d:a4:d3:92:d4:ba:b8:36:
        e5:8b:8a:8b:72:66:b3:7a:77:15:43:94:52:06:91:ee:97:32:
        64:d4:ae:12:4a:5c:c9:d8:80:c7:b6:da:39:82:35:26:c7:7e:
        d8:4d:08:4a:ff:d2:a9:b4:be:83:20:8f:a5:66:14:ad:84:47:
        d0:02:00:3e
-----BEGIN CERTIFICATE REQUEST-----
MIIDEzCCAfsCAQAwfDELMAkGA1UEBhMCTk8xDTALBgNVBAgMBE9zbG8xDTALBgNV
BAcMBE9zbG8xFDASBgNVBAoMC1RMUyBFeHBlcnRzMRUwEwYDVQQDDAxUaG9yIE9k
aW5zb24xIjAgBgkqhkiG9w0BCQEWE3Rob3JAdGxzLWV4cGVydHMubm8wggEiMA0G
CSqGSIb3DQEBAQUAA4IBDwAwggEKAoIBAQCyrd6dyQxAPtkM6IF7WWF/7gs+qiof
t4PY02R/QblR5g79Ws72KGDPt4KZLrVTjIdThsKwbezR3lW3QTYqLWDbvNl133RW
8wPRPV5PXSqckdICpkJXaugbd0aGUa6abpTf8tuYh5HZJ4a2RF0Gz+QqF8K52RHz
mh+VyZw95jjdcxprHwRD5K9MXRSFIKyjJ7koPEon7eKTIu+9AfPyFk+6Ycws5Cy5
0+YRBTE75s+2thgWNKB0N5NOe4pdwLESFP7BW4bplgNzCU/BAzcStmwM54NzrYbu
MYLNIc5NHUyWciSLCuPR2+v8znN0nDiaAAO4JikPa7CLpB+16ehl7sc7AgMBAAGg
UjBQBgkqhkiG9w0BCQ4xQzBBMD8GA1UdEQQ4MDaBGXBvc3RtYXN0ZXJAdGxzLWV4
cGVydHMubm+BGWhvc3RtYXN0ZXJAdGxzLWV4cGVydHMubm8wDQYJKoZIhvcNAQEL
BQADggEBAKw+ZtS/7mGRCgWxzACAlmfQV8sZaSMXXFCR0W1ssC99bKiSZmD3YBY8
tcOy/x4e81d5MWOy3yqRQBXjZFMSVYEU8dyAfxUy9fRnAwqLwjzXS2wOhz9emybN
tkxjBzIVgIvp6eugNUICyS7B6wGKppUjXEXurbfnRspEz+VdXVk6ATnsyT5ktESZ
eQilww+EMkKgHtPqOf9RMhRBTDGTHIi9wCipWcw3Zb64N3mnaxvK4vBPlQneHm3N
Vt2RZJ5dpNOS1Lq4NuWLiotyZrN6dxVDlFIGke6XMmTUrhJKXMnYgMe22jmCNSbH
fthNCEr/0qm0voMgj6VmFK2ER9ACAD4=
-----END CERTIFICATE REQUEST-----
