Certificate:
    Data:
        Version: 3 (0x2)
        Serial Number:
            75:2d:d4:ac:ce:cc:c2:f3:e4:72:8c:9b:ea:34:8b:45:24:fc:28:3a
        Signature Algorithm: sha256WithRSAEncryption
        Issuer: C=NO, ST=Oslo, L=Oslo, O=TLS Experts, CN=Intermediate CA
        Validity
            Not Before: Oct 11 15:51:28 2023 GMT
            Not After : Oct 10 15:51:28 2024 GMT
        Subject: C=NO, ST=Oslo, L=Oslo, O=TLS Experts, CN=Thor Odinson/emailAddress=thor@tls-experts.no
        Subject Public Key Info:
            Public Key Algorithm: rsaEncryption
                Public-Key: (2048 bit)
                Modulus:
                    00:b2:ad:de:9d:c9:0c:40:3e:d9:0c:e8:81:7b:59:
                    61:7f:ee:0b:3e:aa:2a:1f:b7:83:d8:d3:64:7f:41:
                    b9:51:e6:0e:fd:5a:ce:f6:28:60:cf:b7:82:99:2e:
                    b5:53:8c:87:53:86:c2:b0:6d:ec:d1:de:55:b7:41:
                    36:2a:2d:60:db:bc:d9:75:df:74:56:f3:03:d1:3d:
                    5e:4f:5d:2a:9c:91:d2:02:a6:42:57:6a:e8:1b:77:
                    46:86:51:ae:9a:6e:94:df:f2:db:98:87:91:d9:27:
                    86:b6:44:5d:06:cf:e4:2a:17:c2:b9:d9:11:f3:9a:
                    1f:95:c9:9c:3d:e6:38:dd:73:1a:6b:1f:04:43:e4:
                    af:4c:5d:14:85:20:ac:a3:27:b9:28:3c:4a:27:ed:
                    e2:93:22:ef:bd:01:f3:f2:16:4f:ba:61:cc:2c:e4:
                    2c:b9:d3:e6:11:05:31:3b:e6:cf:b6:b6:18:16:34:
                    a0:74:37:93:4e:7b:8a:5d:c0:b1:12:14:fe:c1:5b:
                    86:e9:96:03:73:09:4f:c1:03:37:12:b6:6c:0c:e7:
                    83:73:ad:86:ee:31:82:cd:21:ce:4d:1d:4c:96:72:
                    24:8b:0a:e3:d1:db:eb:fc:ce:73:74:9c:38:9a:00:
                    03:b8:26:29:0f:6b:b0:8b:a4:1f:b5:e9:e8:65:ee:
                    c7:3b
                Exponent: 65537 (0x10001)
        X509v3 extensions:
            X509v3 Subject Key Identifier: 
                4E:6D:2B:48:4C:E5:4A:3B:C7:E0:9B:5D:88:4D:9C:B4:69:B6:FE:FE
            X509v3 Authority Key Identifier: 
                0B:BC:69:DE:76:57:96:14:DF:60:A8:D9:D7:92:74:39:2D:B6:EE:A9
            X509v3 Basic Constraints: critical
                CA:FALSE
            Netscape Cert Type: 
                SSL Client, S/MIME
            X509v3 Key Usage: critical
                Digital Signature, Non Repudiation, Key Encipherment
            X509v3 Extended Key Usage: 
                TLS Web Client Authentication, E-mail Protection
            X509v3 CRL Distribution Points: 
                Full Name:
                  URI:http://crl.tls-experts.no/intermediate_crl.der
            Authority Information Access: 
                OCSP - URI:http://ocsp.tls-experts.no/
            X509v3 Subject Alternative Name: 
                email:postmaster@tls-experts.no, email:hostmaster@tls-experts.no
    Signature Algorithm: sha256WithRSAEncryption
    Signature Value:
        a6:d8:8b:6f:27:d5:00:e0:2e:81:78:18:a7:fa:e5:c5:a6:0c:
        66:2c:f5:ca:61:dc:d0:9d:3e:1f:11:c9:37:80:78:bb:d0:65:
        cb:db:42:07:84:25:6e:fb:88:c1:74:63:6c:90:a5:7c:50:e8:
        35:56:0f:4f:b9:67:7c:e4:8c:bf:a2:d7:fe:22:ac:72:31:b1:
        cd:79:ec:16:1a:c7:23:b1:36:c3:06:ad:3a:99:02:b0:e0:0d:
        43:7c:ee:ac:18:8b:9e:e9:e4:ee:11:e4:51:16:aa:c7:c8:cf:
        b9:c8:be:d2:0a:83:ee:e8:ef:92:04:71:c8:00:49:0e:81:94:
        45:2c:a5:83:4b:8e:5a:13:97:1d:e8:7b:59:da:37:78:a8:47:
        db:1d:0a:08:23:dc:2f:37:24:6a:60:05:4b:0f:f6:48:95:0e:
        69:88:f5:0f:e7:0a:8b:c6:5e:0f:31:d7:fb:eb:d9:50:c8:9e:
        48:5b:18:41:52:d7:6f:18:0a:0c:d1:11:1a:17:67:24:72:81:
        fe:e3:b4:dd:3d:0a:b8:bb:4f:25:d2:08:43:c2:ae:fc:e5:2b:
        a9:7f:d1:49:12:87:d3:02:1b:74:f6:90:32:93:f2:70:5b:79:
        86:5b:5e:61:11:16:de:e5:15:ca:95:d7:f5:b9:a9:ee:da:1a:
        b2:11:c1:42
-----BEGIN CERTIFICATE-----
MIIEtjCCA56gAwIBAgIUdS3UrM7MwvPkcoyb6jSLRST8KDowDQYJKoZIhvcNAQEL
BQAwWzELMAkGA1UEBhMCTk8xDTALBgNVBAgMBE9zbG8xDTALBgNVBAcMBE9zbG8x
FDASBgNVBAoMC1RMUyBFeHBlcnRzMRgwFgYDVQQDDA9JbnRlcm1lZGlhdGUgQ0Ew
HhcNMjMxMDExMTU1MTI4WhcNMjQxMDEwMTU1MTI4WjB8MQswCQYDVQQGEwJOTzEN
MAsGA1UECAwET3NsbzENMAsGA1UEBwwET3NsbzEUMBIGA1UECgwLVExTIEV4cGVy
dHMxFTATBgNVBAMMDFRob3IgT2RpbnNvbjEiMCAGCSqGSIb3DQEJARYTdGhvckB0
bHMtZXhwZXJ0cy5ubzCCASIwDQYJKoZIhvcNAQEBBQADggEPADCCAQoCggEBALKt
3p3JDEA+2QzogXtZYX/uCz6qKh+3g9jTZH9BuVHmDv1azvYoYM+3gpkutVOMh1OG
wrBt7NHeVbdBNiotYNu82XXfdFbzA9E9Xk9dKpyR0gKmQldq6Bt3RoZRrppulN/y
25iHkdknhrZEXQbP5CoXwrnZEfOaH5XJnD3mON1zGmsfBEPkr0xdFIUgrKMnuSg8
Sift4pMi770B8/IWT7phzCzkLLnT5hEFMTvmz7a2GBY0oHQ3k057il3AsRIU/sFb
humWA3MJT8EDNxK2bAzng3Othu4xgs0hzk0dTJZyJIsK49Hb6/zOc3ScOJoAA7gm
KQ9rsIukH7Xp6GXuxzsCAwEAAaOCAU8wggFLMB0GA1UdDgQWBBRObStITOVKO8fg
m12ITZy0abb+/jAfBgNVHSMEGDAWgBQLvGnedleWFN9gqNnXknQ5LbbuqTAMBgNV
HRMBAf8EAjAAMBEGCWCGSAGG+EIBAQQEAwIFoDAOBgNVHQ8BAf8EBAMCBeAwHQYD
VR0lBBYwFAYIKwYBBQUHAwIGCCsGAQUFBwMEMD8GA1UdHwQ4MDYwNKAyoDCGLmh0
dHA6Ly9jcmwudGxzLWV4cGVydHMubm8vaW50ZXJtZWRpYXRlX2NybC5kZXIwNwYI
KwYBBQUHAQEEKzApMCcGCCsGAQUFBzABhhtodHRwOi8vb2NzcC50bHMtZXhwZXJ0
cy5uby8wPwYDVR0RBDgwNoEZcG9zdG1hc3RlckB0bHMtZXhwZXJ0cy5ub4EZaG9z
dG1hc3RlckB0bHMtZXhwZXJ0cy5ubzANBgkqhkiG9w0BAQsFAAOCAQEAptiLbyfV
AOAugXgYp/rlxaYMZiz1ymHc0J0+HxHJN4B4u9Bly9tCB4QlbvuIwXRjbJClfFDo
NVYPT7lnfOSMv6LX/iKscjGxzXnsFhrHI7E2wwatOpkCsOANQ3zurBiLnunk7hHk
URaqx8jPuci+0gqD7ujvkgRxyABJDoGURSylg0uOWhOXHeh7Wdo3eKhH2x0KCCPc
LzckamAFSw/2SJUOaYj1D+cKi8ZeDzHX++vZUMieSFsYQVLXbxgKDNERGhdnJHKB
/uO03T0KuLtPJdIIQ8Ku/OUrqX/RSRKH0wIbdPaQMpPycFt5hlteYREW3uUVypXX
9bmp7toashHBQg==
-----END CERTIFICATE-----
