Certificate:
    Data:
        Version: 3 (0x2)
        Serial Number:
            13:65:19:b0:6f:f9:36:75:4f:79:1c:34:df:ef:c6:44:16:27:d2:aa
        Signature Algorithm: sha256WithRSAEncryption
        Issuer: C=NO, ST=Oslo, L=Oslo, O=TLS Experts, CN=Root CA
        Validity
            Not Before: Oct 11 14:41:13 2023 GMT
            Not After : Oct  8 14:41:13 2033 GMT
        Subject: C=NO, ST=Oslo, L=Oslo, O=TLS Experts, CN=Intermediate CA
        Subject Public Key Info:
            Public Key Algorithm: rsaEncryption
                Public-Key: (2048 bit)
                Modulus:
                    00:b5:09:d0:f6:66:df:f3:78:db:82:6d:f3:2f:e5:
                    4b:63:f9:70:49:9d:bd:8d:e2:5b:6a:fa:6c:21:12:
                    9b:00:9e:be:ac:d7:d3:2e:d9:52:5b:ee:64:c5:92:
                    3f:e7:dd:b1:d6:c8:26:67:09:81:b3:87:00:9c:64:
                    f3:f1:ab:56:11:50:e6:51:6d:5a:b4:7c:62:e5:44:
                    fa:3b:35:73:4c:98:2d:90:eb:d8:cb:b4:d8:13:25:
                    7f:09:78:b7:06:f9:86:64:83:d7:8f:f7:3d:a2:86:
                    b9:16:fe:1c:c2:75:6c:37:51:c1:9d:df:68:f9:45:
                    97:30:73:d8:e4:13:7d:4a:15:8b:3d:f3:7a:80:24:
                    3f:48:37:c1:50:d7:32:0c:28:27:60:d8:27:2f:51:
                    e4:ab:e0:07:8c:d2:26:12:f1:0e:29:5e:c4:cd:c1:
                    c2:1d:e4:e1:48:5c:e5:7e:34:f7:93:7c:51:72:9e:
                    c9:5e:ae:f3:c6:95:ca:ea:f0:cb:13:43:7a:ea:30:
                    e1:3b:d2:7e:48:45:93:74:a7:33:e6:96:b0:f3:c7:
                    11:d4:38:30:fa:f8:ee:44:b1:c4:fe:ba:c0:ab:9a:
                    be:f9:d2:7a:c8:10:51:a1:30:cc:b6:9b:5d:c2:a6:
                    84:f7:da:62:82:20:6c:1b:90:b8:78:c8:fb:cf:38:
                    17:ab
                Exponent: 65537 (0x10001)
        X509v3 extensions:
            X509v3 Subject Key Identifier: 
                0B:BC:69:DE:76:57:96:14:DF:60:A8:D9:D7:92:74:39:2D:B6:EE:A9
            X509v3 Authority Key Identifier: 
                DA:B7:2C:89:7E:7B:D2:BC:1D:4D:11:E5:37:46:BC:B0:99:A0:B3:12
            X509v3 Basic Constraints: critical
                CA:TRUE, pathlen:0
            X509v3 Key Usage: critical
                Digital Signature, Certificate Sign, CRL Sign
            X509v3 CRL Distribution Points: 
                Full Name:
                  URI:http://crl.tls-experts.no/root_crl.der
    Signature Algorithm: sha256WithRSAEncryption
    Signature Value:
        a4:03:2d:67:0a:3b:3d:44:0c:aa:2b:c8:4b:24:4e:bd:d9:7a:
        dd:32:e6:7d:90:79:b9:45:d0:f4:6f:03:12:10:06:c3:e2:ff:
        1f:a0:69:d9:46:16:d5:8b:31:e8:2c:bd:65:f5:28:b9:09:c5:
        b0:90:6d:4a:05:c5:f1:a9:49:27:42:c9:91:f5:a7:85:4a:43:
        41:16:8b:a4:88:45:15:0e:c2:72:72:b6:c9:f1:92:ba:27:f0:
        5f:13:2f:e1:ee:87:ef:66:cc:26:d0:5e:d6:e7:5b:0b:b2:37:
        78:8b:c6:2b:ca:db:e4:67:11:8a:f2:00:85:26:6c:3f:95:ac:
        d7:55:40:d4:67:7f:fa:3d:cd:06:c2:4d:63:ea:a1:1b:c2:b6:
        bb:a2:2d:10:f0:be:86:95:68:54:02:25:3b:cf:76:d9:26:f8:
        81:d2:f0:c4:61:79:3b:9b:45:23:30:a9:cc:5b:73:3f:9b:55:
        89:20:40:b5:c0:ff:7e:d4:67:a5:a1:67:50:3b:58:07:01:e4:
        7f:43:2a:f8:5a:2d:20:82:cf:45:d5:7b:e0:35:60:d0:e6:6e:
        68:a4:8d:a8:fc:ef:76:71:80:a1:15:64:fd:6e:00:2e:6a:67:
        c6:40:23:00:ce:b2:f0:b4:cb:fa:3c:5e:d9:0f:a2:b2:2e:fc:
        a2:50:bf:c9
-----BEGIN CERTIFICATE-----
MIID3TCCAsWgAwIBAgIUE2UZsG/5NnVPeRw03+/GRBYn0qowDQYJKoZIhvcNAQEL
BQAwUzELMAkGA1UEBhMCTk8xDTALBgNVBAgMBE9zbG8xDTALBgNVBAcMBE9zbG8x
FDASBgNVBAoMC1RMUyBFeHBlcnRzMRAwDgYDVQQDDAdSb290IENBMB4XDTIzMTAx
MTE0NDExM1oXDTMzMTAwODE0NDExM1owWzELMAkGA1UEBhMCTk8xDTALBgNVBAgM
BE9zbG8xDTALBgNVBAcMBE9zbG8xFDASBgNVBAoMC1RMUyBFeHBlcnRzMRgwFgYD
VQQDDA9JbnRlcm1lZGlhdGUgQ0EwggEiMA0GCSqGSIb3DQEBAQUAA4IBDwAwggEK
AoIBAQC1CdD2Zt/zeNuCbfMv5Utj+XBJnb2N4ltq+mwhEpsAnr6s19Mu2VJb7mTF
kj/n3bHWyCZnCYGzhwCcZPPxq1YRUOZRbVq0fGLlRPo7NXNMmC2Q69jLtNgTJX8J
eLcG+YZkg9eP9z2ihrkW/hzCdWw3UcGd32j5RZcwc9jkE31KFYs983qAJD9IN8FQ
1zIMKCdg2CcvUeSr4AeM0iYS8Q4pXsTNwcId5OFIXOV+NPeTfFFynslervPGlcrq
8MsTQ3rqMOE70n5IRZN0pzPmlrDzxxHUODD6+O5EscT+usCrmr750nrIEFGhMMy2
m13CpoT32mKCIGwbkLh4yPvPOBerAgMBAAGjgaAwgZ0wHQYDVR0OBBYEFAu8ad52
V5YU32Co2deSdDkttu6pMB8GA1UdIwQYMBaAFNq3LIl+e9K8HU0R5TdGvLCZoLMS
MBIGA1UdEwEB/wQIMAYBAf8CAQAwDgYDVR0PAQH/BAQDAgGGMDcGA1UdHwQwMC4w
LKAqoCiGJmh0dHA6Ly9jcmwudGxzLWV4cGVydHMubm8vcm9vdF9jcmwuZGVyMA0G
CSqGSIb3DQEBCwUAA4IBAQCkAy1nCjs9RAyqK8hLJE692XrdMuZ9kHm5RdD0bwMS
EAbD4v8foGnZRhbVizHoLL1l9Si5CcWwkG1KBcXxqUknQsmR9aeFSkNBFoukiEUV
DsJycrbJ8ZK6J/BfEy/h7ofvZswm0F7W51sLsjd4i8YrytvkZxGK8gCFJmw/lazX
VUDUZ3/6Pc0Gwk1j6qEbwra7oi0Q8L6GlWhUAiU7z3bZJviB0vDEYXk7m0UjMKnM
W3M/m1WJIEC1wP9+1GeloWdQO1gHAeR/Qyr4Wi0ggs9F1XvgNWDQ5m5opI2o/O92
cYChFWT9bgAuamfGQCMAzrLwtMv6PF7ZD6KyLvyiUL/J
-----END CERTIFICATE-----
