Certificate:
    Data:
        Version: 3 (0x2)
        Serial Number:
            50:1b:a2:b2:35:46:ec:fe:36:0d:58:d2:2e:e2:d6:d8:ae:58:f0:2c
        Signature Algorithm: sha256WithRSAEncryption
        Issuer: C=NO, ST=Oslo, L=Oslo, O=TLS Experts, CN=Root CA
        Validity
            Not Before: Oct 11 14:23:34 2023 GMT
            Not After : Oct  8 14:23:34 2033 GMT
        Subject: C=NO, ST=Oslo, L=Oslo, O=TLS Experts, CN=Root CA
        Subject Public Key Info:
            Public Key Algorithm: rsaEncryption
                Public-Key: (2048 bit)
                Modulus:
                    00:fc:e4:03:eb:fe:24:b8:f2:89:3f:23:01:b6:c8:
                    34:1b:33:8a:58:89:51:f1:06:88:5f:3d:25:9f:ab:
                    32:26:96:27:45:5a:62:10:cb:9a:17:c1:be:e0:8a:
                    fa:fc:5b:f7:8c:5d:2a:02:ed:dd:75:f4:bd:88:65:
                    d0:e5:1f:61:92:51:e5:ba:cd:7b:4b:d1:e1:b6:b7:
                    ae:63:b7:5e:9e:a4:6d:57:79:de:ba:51:45:58:84:
                    75:fc:6c:c1:f5:d8:a6:7a:a4:48:82:6a:c1:4c:e0:
                    63:a7:20:9b:85:1f:33:71:6b:b2:62:dc:0d:63:70:
                    5d:fb:23:b1:24:f4:53:24:c1:15:08:25:9e:74:76:
                    4c:d4:b3:71:85:ee:bc:27:d8:5c:79:0e:d2:08:3e:
                    23:4a:30:fc:ea:8b:e3:2a:78:2a:78:9e:f2:cd:9c:
                    09:12:cb:03:c5:35:6b:9c:65:73:80:f0:74:fe:5d:
                    33:e2:14:72:53:30:f5:b9:80:ae:27:c0:8b:48:19:
                    c4:06:53:71:62:71:ab:e7:b7:6e:64:71:fb:f1:31:
                    9a:6e:51:3e:ce:ac:51:28:b7:96:20:ca:c8:6e:fa:
                    c0:fd:92:4d:fc:82:a7:73:09:af:b1:36:34:5c:10:
                    03:e4:5d:f9:f0:b8:20:e5:f1:e8:e7:d8:2a:46:f8:
                    9b:0f
                Exponent: 65537 (0x10001)
        X509v3 extensions:
            X509v3 Subject Key Identifier: 
                DA:B7:2C:89:7E:7B:D2:BC:1D:4D:11:E5:37:46:BC:B0:99:A0:B3:12
            X509v3 Authority Key Identifier: 
                DA:B7:2C:89:7E:7B:D2:BC:1D:4D:11:E5:37:46:BC:B0:99:A0:B3:12
            X509v3 Basic Constraints: critical
                CA:TRUE
            X509v3 Key Usage: critical
                Digital Signature, Certificate Sign, CRL Sign
            X509v3 CRL Distribution Points: 
                Full Name:
                  URI:http://crl.tls-experts.no/root_crl.der
    Signature Algorithm: sha256WithRSAEncryption
    Signature Value:
        6f:80:b1:f0:20:28:d0:da:8c:ca:5b:5f:26:f5:13:cb:18:52:
        49:dd:43:2a:61:43:4b:9b:e3:d9:e1:05:91:92:f1:6e:12:85:
        b6:fc:58:17:34:76:56:5b:ab:62:2b:60:06:f2:22:2c:9c:94:
        05:3b:73:88:50:4c:9d:31:14:ca:7f:4e:06:d1:76:bd:4b:f9:
        37:e8:52:df:b9:dc:ef:33:a1:61:18:fe:75:d5:f6:26:15:c0:
        8f:3e:bf:55:cc:7d:af:99:92:37:2f:18:96:22:ea:13:80:fd:
        c7:cc:61:45:8a:36:df:1b:e4:fc:9a:c5:2f:ae:bd:38:cb:25:
        71:ad:53:d2:ac:03:c9:19:7b:59:64:29:f6:91:24:39:b4:53:
        3d:92:0e:3d:5f:be:5d:28:95:1c:b0:71:36:12:95:5c:be:2c:
        7c:54:5f:cf:00:92:e1:4c:3d:7c:e5:e8:84:5c:cb:c1:f0:08:
        aa:68:87:2b:98:68:ce:79:ec:ce:24:f8:c4:58:54:f2:06:a7:
        c8:66:40:f9:0e:f9:aa:86:d5:75:24:eb:e5:14:6a:99:07:82:
        45:be:01:e8:ac:14:6b:e8:0f:8e:6b:21:6c:cd:4e:9a:34:ed:
        af:7d:eb:86:43:93:d7:3d:9e:46:6e:2e:54:6d:16:dd:66:49:
        f6:75:f5:98
-----BEGIN CERTIFICATE-----
MIID0jCCArqgAwIBAgIUUBuisjVG7P42DVjSLuLW2K5Y8CwwDQYJKoZIhvcNAQEL
BQAwUzELMAkGA1UEBhMCTk8xDTALBgNVBAgMBE9zbG8xDTALBgNVBAcMBE9zbG8x
FDASBgNVBAoMC1RMUyBFeHBlcnRzMRAwDgYDVQQDDAdSb290IENBMB4XDTIzMTAx
MTE0MjMzNFoXDTMzMTAwODE0MjMzNFowUzELMAkGA1UEBhMCTk8xDTALBgNVBAgM
BE9zbG8xDTALBgNVBAcMBE9zbG8xFDASBgNVBAoMC1RMUyBFeHBlcnRzMRAwDgYD
VQQDDAdSb290IENBMIIBIjANBgkqhkiG9w0BAQEFAAOCAQ8AMIIBCgKCAQEA/OQD
6/4kuPKJPyMBtsg0GzOKWIlR8QaIXz0ln6syJpYnRVpiEMuaF8G+4Ir6/Fv3jF0q
Au3ddfS9iGXQ5R9hklHlus17S9HhtreuY7denqRtV3neulFFWIR1/GzB9dimeqRI
gmrBTOBjpyCbhR8zcWuyYtwNY3Bd+yOxJPRTJMEVCCWedHZM1LNxhe68J9hceQ7S
CD4jSjD86ovjKngqeJ7yzZwJEssDxTVrnGVzgPB0/l0z4hRyUzD1uYCuJ8CLSBnE
BlNxYnGr57duZHH78TGablE+zqxRKLeWIMrIbvrA/ZJN/IKncwmvsTY0XBAD5F35
8Lgg5fHo59gqRvibDwIDAQABo4GdMIGaMB0GA1UdDgQWBBTatyyJfnvSvB1NEeU3
RrywmaCzEjAfBgNVHSMEGDAWgBTatyyJfnvSvB1NEeU3RrywmaCzEjAPBgNVHRMB
Af8EBTADAQH/MA4GA1UdDwEB/wQEAwIBhjA3BgNVHR8EMDAuMCygKqAohiZodHRw
Oi8vY3JsLnRscy1leHBlcnRzLm5vL3Jvb3RfY3JsLmRlcjANBgkqhkiG9w0BAQsF
AAOCAQEAb4Cx8CAo0NqMyltfJvUTyxhSSd1DKmFDS5vj2eEFkZLxbhKFtvxYFzR2
VlurYitgBvIiLJyUBTtziFBMnTEUyn9OBtF2vUv5N+hS37nc7zOhYRj+ddX2JhXA
jz6/Vcx9r5mSNy8YliLqE4D9x8xhRYo23xvk/JrFL669OMslca1T0qwDyRl7WWQp
9pEkObRTPZIOPV++XSiVHLBxNhKVXL4sfFRfzwCS4Uw9fOXohFzLwfAIqmiHK5ho
znnsziT4xFhU8ganyGZA+Q75qobVdSTr5RRqmQeCRb4B6KwUa+gPjmshbM1OmjTt
r33rhkOT1z2eRm4uVG0W3WZJ9nX1mA==
-----END CERTIFICATE-----
